0000                          .ENGINE   mycomputer   
0000                             ; 
0000                TEC_1:    EQU   1   
0000                RC2014:   EQU   0   
0000                EXTENDED:   EQU   0   
0000                          IF   RC2014   
                                 ; Configuration for RC2014
                    ROMSTART:   EQU   $8000   
                    RAMSTART:   EQU   $8800   
                    LOADER:   EQU   0   
                    BITBANG:   EQU   0   
0000                          ENDIF      
0000                          IF   TEC_1   
0000                             ; Configuration for TEC-1
0000                LOADER:   EQU   0   
0000                BITBANG:   EQU   0   
0000                ROMSTART:   EQU   $0000   
0000                RAMSTART:   EQU   $1800   
0000                ROMSIZE:   EQU   $0800   
0000                RAMSIZE:   EQU   $0800   
0000                             ;TEC-1D SC 8k rom/ram
0000                             ; ROMSTART .equ $0000
0000                             ; RAMSTART .equ $2000
0000                             ; ROMSIZE  .equ 8192
0000                             ; RAMSIZE  .equ 8192
0000                          ENDIF      
0000                .macro EXPECT,msg1,val1
0000                             ; 
0000                 POP HL
0000                 PUSH HL
0000                 LD DE,val1
0000                 OR A
0000                 SBC HL,DE
0000                 LD A,L
0000                 OR H
0000                 JR Z,expect%%M
0000                 CALL printStr
0000                 .cstr msg1,"\r\nActual: "
0000                 CALL printdec
0000                 CALL printStr
0000                 .cstr "\r\nExpected: "
0000                 LD HL,val1
0000                 CALL printdec
0000                 HALT
0000                 .cstr
0000                expect%%M:
0000                 POP HL
0000                .endm
0000                 
0000                .macro TEST,code1,val1
0000                             ; 
0000                 CALL enter
0000                 .cstr code1
0000                 expect code1,val1
0000                .endm
0000                 
0000                             ; 
0000                             ; ROM code
0000                             ; Targets:
0000                             ; TEC-1,TEC-1D,TEC-1F,Southern Cross,RC2014
0000                             ; Memory Map: 2k ROM/RAM, 8K ROM/RAM, RC2014
0000                             ; Serial: Bit Bang, 6850 ACIA
0000                             ; 
0000                          IF   TEC_1   
0000                          IF   BITBANG   
                                 ; 
                                 ; bit bang baud rate constants @ 4MHz
                    B300:     EQU   0220H   
                    B1200:    EQU   0080H   
                    B2400:    EQU   003FH   
                    B4800:    EQU   001BH   
                    B9600:    EQU   000BH   
                                 ; 
0000                          ELSE      ;6850
0000                             ; 
0000                             ; 
0000                             ; 6850 ACIA registers
0000                             ;----------------------
0000                CONTROL:   EQU   $80   ;(write) 
0000                STATUS:   EQU   $80   ;(read)
0000                TDR:      EQU   $81   ;(write)
0000                RDR:      EQU   $81   ;(read)
0000                             ; 
0000                             ; control register bits
0000                             ;----------------------
0000                             ; 
0000                             ;clock divisor
0000                             ; 
0000                MRESET:   EQU   $03   ;master reset the ACIA
0000                             ; DIV_0    .EQU  $00        ;CLOCK/1
0000                             ; DIV_16   .EQU  $01        ;CLOCK/16
0000                DIV_64:   EQU   $02   ;CLOCK/64
0000                             ; 
0000                             ; format select
0000                             ; 
0000                F7E2:     EQU   $00   ;7 data bits, EVEN parity, 2 stop bits (1+7+1+2= 11 bits)
0000                F7O2:     EQU   $04   ;7 data bits, ODD parity, 2 stop bits (1+7+1+2= 11 bits)
0000                F7E1:     EQU   $08   ;7 data bits, EVEN parity, 1 stop bit (1+7+1+1= 10 bits)
0000                F7O1:     EQU   $0C   ;7 data bits, ODD parity, 1 stop bit (1+7+1+1= 10 bits)
0000                F8N2:     EQU   $10   ;8 data bits, NO parity, 2 stop bits (1+8+0+2= 11 bits)
0000                F8N1:     EQU   $14   ;8 data bits, NO parity, 1 stop bit (1+8+0+1= 10 bits)
0000                F8E1:     EQU   $18   ;8 data bits, EVEN parity, 1 stop bit (1+8+1+1= 11 bits)
0000                F8O1:     EQU   $1C   ;8 data bits, ODD parity,1 stop bit (1+8+1+1= 11 bits)
0000                             ; 
0000                             ; transmitter control
0000                             ; 
0000                RTSLID:   EQU   $00   ;RTS LOW, transmit interrupt disabled
0000                RTSLIE:   EQU   $20   ;RTS LOW, transmit interrupt enabled
0000                RTSHID:   EQU   $40   ;RTS HIGH, transmit interrupt disabled
0000                RTSLIDB:   EQU   $60   ;RTS LOW, transmit interrupt disabled and "break" transmitted
0000                             ; 
0000                             ; receiver interrupt
0000                             ; 
0000                RIE:      EQU   $80   ;receiver interrupt enabled
0000                             ; 
0000                             ; status register bits
0000                             ;---------------------
0000                RDRF:     EQU   0   ;receive data register full
0000                TDRE:     EQU   1   ;transmit data register empty
0000                DCD:      EQU   2   ;data carrier detect
0000                CTS:      EQU   3   ;clear to send
0000                FE:       EQU   4   ;framing error
0000                OVRN:     EQU   5   ;overrun
0000                PE:       EQU   6   ;parity error
0000                IRQ:      EQU   7   ;interrupt request
0000                             ; 
0000                          ENDIF      
0000                          ENDIF      
0000                             ; 
0000                             ; I/O port addresses
0000                             ; 
0000                          IF   TEC_1   
0000                KEYBUF:   EQU   00H   ;MM74C923N KEYBOARD ENCODER
0000                SCAN:     EQU   01H   ;DISPLAY SCAN LATCH
0000                DISPLY:   EQU   02H   ;DISPLAY LATCH
0000                PORT3:    EQU   03H   ;ST3 (8X8), STROBE (RELAY BOARD) DATLATCH (DAT BOARD)
0000                PORT4:    EQU   04H   ;ST4 (8X8), LCD "E" (DAT BOARD)
0000                PORT5:    EQU   05H   
0000                PORT6:    EQU   06H   
0000                PORT7:    EQU   07H   ;ENABLE/DISABLE SINGLE STEPPER (IF INSTALLED)
0000                          ELSE      ;SC
                    IO0:      EQU   80H   ;IO PORT 0
                    IO1:      EQU   81H   ;IO PORT 1
                    IO2:      EQU   82H   ;IO PORT 2
                    IO3:      EQU   83H   ;IO PORT 3
                    DISPLY:   EQU   84H   ;DISPLAY LATCH
                    SCAN:     EQU   85H   ;DISPLAY SCAN LATCH
                    KEYBUF:   EQU   86H   ;KEYBOARD BUFFER
                    IO7:      EQU   87H   ;ENABLE/DISABLE SINGLE STEPPER (IF INSTALLED)
0000                          ENDIF      
0000                             ; 
0000                             ; ASCII codes
0000                ESC:      EQU   1BH   
0000                CR:       EQU   0DH   
0000                LF:       EQU   0AH   
0000                             ; 
0000                          .ORG   ROMSTART   
0000                             ;reset
0000                RSTVEC:      
0000   C3 8B 00               JP   RESET   
0003                             ;RST 1
0008                          .ORG   ROMSTART+$08   
0008   E5                     PUSH   HL   
0009   2A 36 1C               LD   HL,(RST08)   
000C   E9                     JP   (HL)   
000D                             ; 
000D                             ;RST 2
0010                          .ORG   ROMSTART+$10   
0010   E5                     PUSH   HL   
0011   2A 38 1C               LD   HL,(RST10)   
0014   E9                     JP   (HL)   
0015                             ; 
0015                             ;RST 3
0018                          .ORG   ROMSTART+$18   
0018   E5                     PUSH   HL   
0019   2A 3A 1C               LD   HL,(RST18)   
001C   E9                     JP   (HL)   
001D                             ; 
001D                             ;RST 4
0020                          .ORG   ROMSTART+$20   
0020   E5                     PUSH   HL   
0021   2A 3C 1C               LD   HL,(RST20)   
0024   E9                     JP   (HL)   
0025                             ; 
0025                             ;RST 5
0028                          .ORG   ROMSTART+$28   
0028   E5                     PUSH   HL   
0029   2A 3E 1C               LD   HL,(RST28)   
002C   E9                     JP   (HL)   
002D                             ; 
002D                             ;RST 6
0030                          .ORG   ROMSTART+$30   
0030   E5                     PUSH   HL   
0031   2A 40 1C               LD   HL,(RST30)   
0034   E9                     JP   (HL)   
0035                             ; 
0035                             ;RST 7 Interrupt
0038                          .ORG   ROMSTART+$38   
0038   E5                     PUSH   HL   
0039   2A 44 1C               LD   HL,(INTVEC)   
003C   E9                     JP   (HL)   
003D   ED 4D                  RETI      
003F                             ; 
0040                          .ORG   ROMSTART+$40   
0040                             ; 
0040                             ;hexadecimal to 7 segment display code table
0040                          IF   TEC_1   
0040                             ; 
0040                SEVENSEGMENT:      
0040   EB 28 CD AD            DB   0EBH,28H,0CDH,0ADH   ;0,1,2,3
0044   2E A7 E7 29            DB   2EH,0A7H,0E7H,29H   ;4,5,6,7
0048   EF 2F 6F E6            DB   0EFH,2FH,6FH,0E6H   ;8,9,A,B
004C   C3 EC C7 47            DB   0C3H,0ECH,0C7H,47H   ;C,D,E,F
0050                          ELSE      ;SC
                                 ; 
                    SEVENSEGMENT:      
                              DB   3FH,06H,5BH,4FH   ;0,1,2,3
                              DB   66H,6DH,7DH,07H   ;4,5,6,7
                              DB   7FH,6FH,77H,7CH   ;8,9,A,B
                              DB   39H,5EH,79H,71H   ;C,D,E,F
0050                          ENDIF      
0050                             ; 
0050                             ; 
0050                             ;---------------
0050                             ; BIT TIME DELAY
0050                             ;---------------
0050                             ;DELAY FOR ONE SERIAL BIT TIME
0050                             ;ENTRY : HL = DELAY TIME
0050                             ; NO REGISTERS MODIFIED
0050                             ; 
0050                PWRUP:       
0050   21 00 20               LD   hl,$2000   
0053                BITIME:      
0053   E5                     PUSH   HL   
0054   D5                     PUSH   DE   
0055   11 01 00               LD   DE,0001H   
0058                BITIM1:      
0058   ED 52                  SBC   HL,DE   
005A   D2 58 00               JP   NC,BITIM1   
005D   D1                     POP   DE   
005E   E1                     POP   HL   
005F                INTRET:      
005F   C9                     RET      
0060                             ; 
0060                             ;RST 8  Non Maskable Interrupt
0066                          .ORG   ROMSTART+$66   
0066   E5                     PUSH   HL   
0067   2A 46 1C               LD   HL,(NMIVEC)   
006A   E9                     JP   (HL)   
006B                             ; 
006B                             ; 
006B                          IF   BITBANG   
                                 ; 
                                 ;------------------------
                                 ; SERIAL TRANSMIT ROUTINE
                                 ;------------------------
                                 ;TRANSMIT BYTE SERIALLY ON DOUT
                                 ; 
                                 ; ENTRY : A = BYTE TO TRANSMIT
                                 ;  EXIT : NO REGISTERS MODIFIED
                                 ; 
                                 ; 
                    TXCHAR:      
                    TXDATA:      
                              PUSH   AF   
                              PUSH   BC   
                              PUSH   HL   
                              LD   HL,(BAUD)   
                              LD   C,A   
                                 ; 
                                 ; TRANSMIT START BIT
                                 ; 
                              XOR   A   
                              OUT   (SCAN),A   
                              CALL   BITIME   
                                 ; 
                                 ; TRANSMIT DATA
                                 ; 
                              LD   B,08H   
                              RRC   C   
                    NXTBIT:      
                              RRC   C   ;SHIFT BITS TO D6,
                              LD   A,C   ;LSB FIRST AND OUTPUT
                              AND   40H   ;THEM FOR ONE BIT TIME.
                              OUT   (SCAN),A   
                              CALL   BITIME   
                              DJNZ   NXTBIT   
                                 ; 
                                 ; SEND STOP BITS
                                 ; 
                              LD   A,40H   
                              OUT   (SCAN),A   
                              CALL   BITIME   
                              CALL   BITIME   
                              POP   HL   
                              POP   BC   
                              POP   AF   
                              RET      
                                 ;-----------------------
                                 ; SERIAL RECEIVE ROUTINE
                                 ;-----------------------
                                 ;RECEIVE SERIAL BYTE FROM DIN
                                 ; 
                                 ; ENTRY : NONE
                                 ;  EXIT : A= RECEIVED BYTE IF CARRY CLEAR
                                 ; 
                                 ; REGISTERS MODIFIED A AND F
                                 ; 
                    RXCHAR:      
                    RXDATA:      
                              PUSH   BC   
                              PUSH   HL   
                                 ; 
                                 ; WAIT FOR START BIT 
                                 ; 
                    RXDAT1:   IN   A,(KEYBUF)   
                              BIT   7,A   
                              JR   NZ,RXDAT1   ;NO START BIT
                                 ; 
                                 ; DETECTED START BIT
                                 ; 
                              LD   HL,(BAUD)   
                              SRL   H   
                              RR   L   ;DELAY FOR HALF BIT TIME
                              CALL   BITIME   
                              IN   A,(KEYBUF)   
                              BIT   7,A   
                              JR   NZ,RXDAT1   ;START BIT NOT VALID
                                 ; 
                                 ; DETECTED VALID START BIT,READ IN DATA
                                 ; 
                              LD   B,08H   
                    RXDAT2:      
                              LD   HL,(BAUD)   
                              CALL   BITIME   ;DELAY ONE BIT TIME
                              IN   A,(KEYBUF)   
                              RL   A   
                              RR   C   ;SHIFT BIT INTO DATA REG
                              DJNZ   RXDAT2   
                              LD   A,C   
                              OR   A   ;CLEAR CARRY FLAG
                              POP   HL   
                              POP   BC   
                              RET      
                                 ; 
006B                          ELSE      ;6850
006B                             ; 
006B                             ; transmit a character in a
006B                             ;--------------------------
006B                TXDATA:      
006B                TXCHAR:      
006B   C5                     PUSH   bc   
006C   47                     LD   b,a   ;save the character  for later
006D                TXCHAR1:      
006D   DB 80                  IN   a,(STATUS)   ;get the ACIA status
006F   CB 4F                  BIT   1,a   
0071                             ;        bit   TDRE,a                ;is the TDRE bit high?
0071   28 FA                  JR   z,TxChar1   ;no, the TDR is not empty
0073   78                     LD   a,b   ;yes, get the character
0074   D3 81                  OUT   (TDR),a   ;and put it in the TDR
0076   C1                     POP   bc   
0077   C9                     RET      
0078                             ; 
0078                             ; receive  a character in a
0078                             ;---------------------------------
0078                RXDATA:      
0078                RXCHAR:      
0078   DB 80                  IN   a,(STATUS)   ;get the ACIA status
007A   CB 47                  BIT   0,a   
007C                             ;        bit   RDRF,a             ;is the RDRF bit high?
007C   28 FA                  JR   z,RxChar   ;no, the RDR is empty
007E   DB 81                  IN   a,(RDR)   ;yes, read the received char
0080   C9                     RET      
0081                          ENDIF      
0081                             ; 
0081                          IF   LOADER   
                                 ;   .ORG   ROMSTART + $0700
                                 ;-----------------------
                                 ; RECEIVE INTEL HEX FILE
                                 ;-----------------------
                    INTELH:      
                              LD   IX,BUF   
                                 ; 
                                 ; WAIT FOR RECORD MARK
                                 ; 
                    INTEL1:      
                              XOR   A   
                              LD   (IX+3),A   ;CLEAR CHECKSUM
                              CALL   RXDATA   ;WAIT FOR THE RECORD MARK
                              CP   ":"   ;TO BE TRANSMITTED
                              JR   NZ,INTEL1   ;NOT RECORD MARK
                                 ; 
                                 ; GET RECORD LENGTH
                                 ; 
                              CALL   GETBYT   
                              LD   (IX+0),A   ;NUMBER OF DATA BYTES
                                 ; 
                                 ; GET ADDRESS FIELD
                                 ; 
                              CALL   GETBYT   
                              LD   (IX+2),A   ;LOAD ADDRESS HIGH BYTE
                              CALL   GETBYT   
                              LD   (IX+1),A   ;LOAD ADDRESS LOW BYTE
                                 ; 
                                 ; GET RECORD TYPE
                                 ; 
                              CALL   GETBYT   
                              JR   NZ,INTEL4   ;END OF FILE RECORD
                                 ; 
                                 ; READ IN THE DATA
                                 ; 
                              LD   B,(IX+0)   ;NUMBER OF DATA BYTES
                              LD   H,(IX+2)   ;LOAD ADDRESS HIGH BYTE
                              LD   L,(IX+1)   ;LOAD ADDRESS LOW BYTE
                                 ; 
                    INTEL2:      
                              CALL   GETBYT   ;GET DATA BYTE
                              LD   (HL),A   ;STORE DATA BYTE
                              INC   HL   
                              DJNZ   INTEL2   ;LOAD MORE BYTES
                                 ; 
                                 ; GET CHECKSUM AND COMPARE
                                 ; 
                              LD   A,(IX+3)   ;CONVERT CHECKSUM TO
                              NEG      ;TWO'S COMPLEMENT
                              LD   (IX+4),A   ;SAVE COMPUTED CHECKSUM
                              CALL   GETBYT   
                              LD   (IX+3),A   ;SAVE RECORD CHECKSUM
                              CP   (IX+4)   ;COMPARE CHECKSUM
                              JR   Z,INTEL1   ;CHECKSUM OK,NEXT RECORD
                              RET      ;NZ=CHECKSUM ERROR
                                 ; 
                                 ; END OF FILE RECORD
                                 ; 
                    INTEL4:      
                              LD   A,(IX+3)   ;CONVERT CHECKSUM TO
                              NEG      ;TWO'S COMPLEMENT
                              LD   (IX+4),A   ;SAVE COMPUTED CHECKSUM
                              CALL   GETBYT   
                              LD   (IX+3),A   ;SAVE EOF CHECKSUM
                              CP   (IX+4)   ;COMPARE CHECKSUM
                              RET      ;NZ=CHECKSUM ERROR
                                 ;--------------------------
                                 ; GET BYTE FROM SERIAL PORT
                                 ;--------------------------
                    GETBYT:      
                              PUSH   BC   
                              CALL   RXDATA   
                              BIT   6,A   
                              JR   Z,GETBT1   
                              ADD   A,09H   
                    GETBT1:      
                              AND   0FH   
                              SLA   A   
                              SLA   A   
                              SLA   A   
                              SLA   A   
                              LD   C,A   
                                 ; 
                                 ; GET LOW NYBBLE
                                 ; 
                              CALL   RXDATA   
                              BIT   6,A   
                              JR   Z,GETBT2   
                              ADD   A,09H   
                    GETBT2:   AND   0FH   
                              OR   C   
                              LD   B,A   
                              ADD   A,(IX+3)   
                              LD   (IX+3),A   ;ADD TO CHECKSUM
                              LD   A,B   
                              AND   A   ;CLEAR CARRY
                              POP   BC   
                              RET      
0081                          ENDIF      
0081                             ; 
0081                             ; in this example code just wait for an INTEL Hex file download
0081                             ;just going to send a char to let you know I'm here
0081                          IF   LOADER   
                                 ; 
                    LOAD:        
                              LD   a,"L"   ; L for load
                              CALL   TxChar   
                              CALL   INTELH   
                              JP   z,RAMSTART   ;assume the downloaded code starts here
                              LD   a,"0"   ;0 is false
                              CALL   TxChar   
                              JR   load   ;if at first you don't succeed...
0081                          ENDIF      
0081                             ; 
0081                GETCHAR:      
0081   2A 48 1C               LD   HL,(GETCVEC)   
0084   E9                     JP   (HL)   
0085                             ; 
0085                PUTCHAR:      
0085   E5                     PUSH   HL   
0086   2A 4A 1C               LD   HL,(PUTCVEC)   
0089   E3                     EX   (SP),HL   
008A   C9                     RET      
008B                             ; 
008B                RESET:       
008B   31 00 1A               LD   SP,stack   
008E   21 5F 00               LD   HL,IntRet   
0091   22 36 1C               LD   (RST08),HL   
0094   22 38 1C               LD   (RST10),HL   
0097   22 3A 1C               LD   (RST18),HL   
009A   22 3C 1C               LD   (RST20),HL   
009D   22 3E 1C               LD   (RST28),HL   
00A0   22 40 1C               LD   (RST30),HL   
00A3   22 44 1C               LD   (INTVEC),HL   
00A6   22 46 1C               LD   (NMIVEC),HL   
00A9                             ; 
00A9   21 78 00               LD   HL,RXDATA   
00AC   22 48 1C               LD   (GETCVEC),HL   
00AF   21 6B 00               LD   HL,TXDATA   
00B2   22 4A 1C               LD   (PUTCVEC),HL   
00B5                             ; 
00B5                          IF   TEC_1   
00B5                          IF   BITBANG = 0   
00B5                             ; 
00B5   3E 03                  LD   a,MRESET   
00B7   D3 80                  OUT   (CONTROL),a   ;reset the ACIA
00B9                             ; 
00B9                          ENDIF      
00B9                          ENDIF      
00B9                             ; 
00B9   CD 50 00               CALL   PWRUP   
00BC   ED 56                  IM   1   
00BE   FB                     EI      
00BF                             ; 
00BF                          IF   TEC_1   
00BF                          IF   BITBANG   
                                 ; 
                                 ;inline serial initialisation
                              LD   A,$40   
                              LD   C,SCAN   
                              OUT   (C),A   
                              LD   HL,B4800   
                              LD   (BAUD),HL   
                                 ; 
00BF                          ELSE      ;6850      
00BF                             ; 
00BF   3E 12                  LD   a,RTSLID+F8N2+DIV_64   
00C1   D3 80                  OUT   (CONTROL),a   ;initialise ACIA  8 bit word, No parity 2 stop divide by 64 for 115200 baud
00C3                             ; 
00C3                          ENDIF      
00C3                          ENDIF      
00C3                             ; 
00C3                             ; 
00C3                             ; 
00C3   31 00 1A               LD   SP,DSTACK   
00C6   CD B2 03               CALL   init   
00C9   C3 00 40               JP   testsStart   
00CC                             ; 
00CC                             ; *************************************************************************
00CC                             ; 
00CC                             ;       SCAN Programming Language for the Z80
00CC                             ; 
00CC                             ;       by John Hardy 2022
00CC                             ; 
00CC                             ;       Incorporating code from the MINT project by Ken Boak and Craig Jones.
00CC                             ; 
00CC                             ;       GNU GENERAL PUBLIC LICENSE                   Version 3, 29 June 2007
00CC                             ; 
00CC                             ;       see the LICENSE file in this repo for more information
00CC                             ; 
00CC                             ; *****************************************************************************
00CC                DSIZE:    EQU   $80   
00CC                RSIZE:    EQU   $80   
00CC                LSIZE:    EQU   $80   
00CC                TIBSIZE:   EQU   $100   ; 256 bytes , along line!
00CC                TRUE:     EQU   1   ; not FF, for SCAN
00CC                FALSE:    EQU   0   
00CC                EMPTY:    EQU   0   ; for an empty macro, ctrl-<something>=macro, ie ctrl-h = backspace macros (in SCAN)
00CC                MINTDATASIZE:   EQU   26*2*2   ; A..Z, a..z words
00CC                .macro LITDAT,len
00CC                             ; 
00CC                 DB len
00CC                .endm
00CC                 
00CC                .macro REPDAT,len,data
00CC                             ; 
00CC                 DB (len | $80)
00CC                 DB data
00CC                .endm
00CC                 
00CC                .macro ENDDAT,
00CC                             ; 
00CC                 DB 0
00CC                .endm
00CC                 
00CC                             ; **************************************************************************
00CC                             ; Page 0  Initialisation
00CC                             ; **************************************************************************		
0180                          .ORG   ROMSTART + $180   ; 0+180 put SCAN code from here	
0180                             ; **************************************************************************
0180                             ; Macros must be written in SCAN and end with ;
0180                             ; this code must not span pages
0180                             ; **************************************************************************
0180                MACROS:      
0180                BACKSP_:      
0180   5C 63 40 30 3D 30 3D 28 5C 63 40 31 2D 5C 63 21 60 08 20 08 60 29 3B DB   "\\c@0=0=(\\c@1-\\c!`\b \b`);"   ;ctr-h  , \ needed inside control code, escape it with anothe \
0197                             ; \c tib add of tib, not visible
0197                             ;@ fetch val
0197                             ;1- reduce
0197                             ;c! store
0197                             ;`\b move cursor back, terminal command
0197                             ;the space between the \b is to over write
0197                             ; 
0197                             ; 
0197                REEDIT_:      
0197   5C 65 5C 40 5C 23 36 3B DB   "\\e\\@\\#6;"   ; remembers last line edited
019F                EDIT_:       
019F   60 3F 60 3F 5C 23 35 5C 23 36 3B 00 .CSTR   "`?`?\\#5\\#6;"   
01AB                LIST_:       
01AB   5C 24 32 36 28 5C 69 40 36 35 2B 5C 23 36 5C 63 40 30 3E 28 5C 24 29 29 5C 23 35 3B 00 .CSTR   "\\$26(\\i@65+\\#6\\c@0>(\\$))\\#5;"   
01C8                PRINTSTACK_:      
01C8   5C 23 34 5C 23 35 3B 00 .CSTR   "\\#4\\#5;"   
01D0                TOGGLEBASE_:      
01D0   5C 62 40 30 3D 5C 62 21 3B 00 .CSTR   "\\b@0=\\b!;"   
01DA                             ; ***********************************************************************
01DA                             ; Initial values for user mintVars		
01DA                             ; ***********************************************************************		
01DA                IALTVARS:      ; value copied into tables
01DA   00 1A                  DW   dStack   ; a vS0 start of datastack			
01DC   00 00                  DW   FALSE   ; b vBase16
01DE   00 00                  DW   0   ; c vTIBPtr an offset to the tib
01E0   00 00                  DW   0   ; d
01E2   41 00                  DW   65   ; e vLastDef "A" last command u defined
01E4   00 00                  DW   0   ; f
01E6   00 07                  DW   page6   ; g 256 bytes limits
01E8   28 1D                  DW   HEAP   ; h vHeapPtr \h start of the free mem
01EA                IOPCODES:      
01EA                          ;*Macro unroll:  LITDAT 4		; macros for compression
01EA   04                     DB   4   ; macros for compression
01EB   63                     DB   lsb(exit_)   ;   NUL get least signif byte of address exit_
01EC   83                     DB   lsb(nop_)   ;   SOH
01ED   83                     DB   lsb(nop_)   ;   STX
01EE   60                     DB   lsb(etx_)   ;   ETX
01EF                          ;*Macro unroll:  LITDAT 29
01EF   1D                     DB   29   
01F0                             ; REPDAT 29, lsb(nop_)
01F0   83                     DB   lsb(nop_)   ; 
01F1   83                     DB   lsb(nop_)   ; 
01F2   83                     DB   lsb(nop_)   ; 
01F3   83                     DB   lsb(nop_)   ; 
01F4   83                     DB   lsb(nop_)   ; 
01F5   83                     DB   lsb(nop_)   ; 
01F6   83                     DB   lsb(nop_)   ; 
01F7   83                     DB   lsb(nop_)   ; 
01F8   83                     DB   lsb(nop_)   ; 
01F9   83                     DB   lsb(nop_)   ; 
01FA   83                     DB   lsb(nop_)   ; 
01FB   83                     DB   lsb(nop_)   ; 
01FC   83                     DB   lsb(nop_)   ; 
01FD   83                     DB   lsb(nop_)   ; 
01FE   83                     DB   lsb(nop_)   ; 
01FF   83                     DB   lsb(nop_)   ; 
0200   83                     DB   lsb(nop_)   ; 
0201   83                     DB   lsb(nop_)   ; 
0202   83                     DB   lsb(nop_)   ; 
0203   83                     DB   lsb(nop_)   ; 
0204   83                     DB   lsb(nop_)   ; 
0205   83                     DB   lsb(nop_)   ; 
0206   83                     DB   lsb(nop_)   ; 
0207   83                     DB   lsb(nop_)   ; 
0208   83                     DB   lsb(nop_)   ; 
0209   83                     DB   lsb(nop_)   ; 
020A   83                     DB   lsb(nop_)   ; 
020B   83                     DB   lsb(nop_)   ; 
020C   83                     DB   lsb(nop_)   ; 
020D                          ;*Macro unroll:  LITDAT 15
020D   0F                     DB   15   
020E   A8                     DB   lsb(store_)   ;   !
020F   5B                     DB   lsb(dup_)   ;   "
0210   74                     DB   lsb(hex_)   ;    #
0211   AF                     DB   lsb(swap_)   ;    $
0212   86                     DB   lsb(over_)   ;    %
0213   00                     DB   lsb(and_)   ;    &
0214   58                     DB   lsb(drop_)   ;    '
0215   F5                     DB   lsb(begin_)   ;    (
0216   28                     DB   lsb(again_)   ;    )
0217   80                     DB   lsb(mul_)   ;    *
0218   22                     DB   lsb(add_)   ;    +
0219   52                     DB   lsb(hdot_)   ;    ,
021A   B4                     DB   lsb(sub_)   ;    -
021B   47                     DB   lsb(dot_)   ;    .
021C   F3                     DB   lsb(div_)   ;    /	;/MOD
021D                             ; REPDAT 10, lsb(num_)		; 10 x repeat lsb of add to the num routine
021D                          ;*Macro unroll:  LITDAT 10
021D   0A                     DB   10   
021E   EA                     DB   lsb(num_)   ; 
021F   EA                     DB   lsb(num_)   ; 
0220   EA                     DB   lsb(num_)   ; 
0221   EA                     DB   lsb(num_)   ; 
0222   EA                     DB   lsb(num_)   ; 
0223   EA                     DB   lsb(num_)   ; 
0224   EA                     DB   lsb(num_)   ; 
0225   EA                     DB   lsb(num_)   ; 
0226   EA                     DB   lsb(num_)   ; 
0227   EA                     DB   lsb(num_)   ; 
0228                          ;*Macro unroll:  LITDAT 7
0228   07                     DB   7   
0229   F1                     DB   lsb(def_)   ;    :
022A   8D                     DB   lsb(ret_)   ;    ;
022B   D2                     DB   lsb(lt_)   ;    <
022C   C2                     DB   lsb(eq_)   ;    =
022D   CE                     DB   lsb(gt_)   ;    >
022E   77                     DB   lsb(key_)   ;    ?   ( -- val )  read a char from input
022F   6D                     DB   lsb(fetch_)   ;    @
0230                             ; REPDAT 26, lsb(call_)		; call a command A, B ....Z
0230                          ;*Macro unroll:  LITDAT 26
0230   1A                     DB   26   
0231   3D                     DB   lsb(call_)   ; 
0232   3D                     DB   lsb(call_)   ; 
0233   3D                     DB   lsb(call_)   ; 
0234   3D                     DB   lsb(call_)   ; 
0235   3D                     DB   lsb(call_)   ; 
0236   3D                     DB   lsb(call_)   ; 
0237   3D                     DB   lsb(call_)   ; 
0238   3D                     DB   lsb(call_)   ; 
0239   3D                     DB   lsb(call_)   ; 
023A   3D                     DB   lsb(call_)   ; 
023B   3D                     DB   lsb(call_)   ; 
023C   3D                     DB   lsb(call_)   ; 
023D   3D                     DB   lsb(call_)   ; 
023E   3D                     DB   lsb(call_)   ; 
023F   3D                     DB   lsb(call_)   ; 
0240   3D                     DB   lsb(call_)   ; 
0241   3D                     DB   lsb(call_)   ; 
0242   3D                     DB   lsb(call_)   ; 
0243   3D                     DB   lsb(call_)   ; 
0244   3D                     DB   lsb(call_)   ; 
0245   3D                     DB   lsb(call_)   ; 
0246   3D                     DB   lsb(call_)   ; 
0247   3D                     DB   lsb(call_)   ; 
0248   3D                     DB   lsb(call_)   ; 
0249   3D                     DB   lsb(call_)   ; 
024A   3D                     DB   lsb(call_)   ; 
024B                          ;*Macro unroll:  LITDAT 6
024B   06                     DB   6   
024C   2B                     DB   lsb(arrDef_)   ;    [
024D   F7                     DB   lsb(alt_)   ;    \
024E   EF                     DB   lsb(arrEnd_)   ;    ]
024F   14                     DB   lsb(xor_)   ;    ^
0250   BC                     DB   lsb(neg_)   ;    _
0251   ED                     DB   lsb(str_)   ;    `    	; for printing `hello`
0252                             ; REPDAT 26, lsb(var_)		; a b c .....z
0252                          ;*Macro unroll:  LITDAT 26
0252   1A                     DB   26   
0253   E3                     DB   lsb(var_)   ; 
0254   E3                     DB   lsb(var_)   ; 
0255   E3                     DB   lsb(var_)   ; 
0256   E3                     DB   lsb(var_)   ; 
0257   E3                     DB   lsb(var_)   ; 
0258   E3                     DB   lsb(var_)   ; 
0259   E3                     DB   lsb(var_)   ; 
025A   E3                     DB   lsb(var_)   ; 
025B   E3                     DB   lsb(var_)   ; 
025C   E3                     DB   lsb(var_)   ; 
025D   E3                     DB   lsb(var_)   ; 
025E   E3                     DB   lsb(var_)   ; 
025F   E3                     DB   lsb(var_)   ; 
0260   E3                     DB   lsb(var_)   ; 
0261   E3                     DB   lsb(var_)   ; 
0262   E3                     DB   lsb(var_)   ; 
0263   E3                     DB   lsb(var_)   ; 
0264   E3                     DB   lsb(var_)   ; 
0265   E3                     DB   lsb(var_)   ; 
0266   E3                     DB   lsb(var_)   ; 
0267   E3                     DB   lsb(var_)   ; 
0268   E3                     DB   lsb(var_)   ; 
0269   E3                     DB   lsb(var_)   ; 
026A   E3                     DB   lsb(var_)   ; 
026B   E3                     DB   lsb(var_)   ; 
026C   E3                     DB   lsb(var_)   ; 
026D                          ;*Macro unroll:  LITDAT 5
026D   05                     DB   5   
026E   9B                     DB   lsb(shl_)   ;    {
026F   0B                     DB   lsb(or_)   ;    |
0270   A0                     DB   lsb(shr_)   ;    }
0271   94                     DB   lsb(rot_)   ;    ~ ( a b c -- b c a ) rotate
0272   83                     DB   lsb(nop_)   ;    DEL	; eg 10000()
0273                          ;*Macro unroll:  LITDAT 17
0273   11                     DB   17   
0274   00                     DB   lsb(EMPTY)   ; NUL ^@
0275   00                     DB   lsb(EMPTY)   ; SOH ^A  1
0276   D0                     DB   lsb(toggleBase_)   ; STX ^B  2
0277   00                     DB   lsb(EMPTY)   ; ETX ^C  3
0278   00                     DB   lsb(EMPTY)   ; EOT ^D  4
0279   9F                     DB   lsb(edit_)   ; ENQ ^E  5
027A   00                     DB   lsb(EMPTY)   ; ACK ^F  6
027B   00                     DB   lsb(EMPTY)   ; BEL ^G  7
027C   80                     DB   lsb(backsp_)   ; BS  ^H  8
027D   00                     DB   lsb(EMPTY)   ; TAB ^I  9
027E   97                     DB   lsb(reedit_)   ; LF  ^J 10
027F   00                     DB   lsb(EMPTY)   ; VT  ^K 11
0280   AB                     DB   lsb(list_)   ; FF  ^L 12
0281   00                     DB   lsb(EMPTY)   ; CR  ^M 13
0282   00                     DB   lsb(EMPTY)   ; SO  ^N 14
0283   00                     DB   lsb(EMPTY)   ; SI  ^O 15
0284   C8                     DB   lsb(printStack_)   ; DLE ^P 16
0285                             ; REPDAT 15, lsb(EMPTY)
0285                          ;*Macro unroll:  LITDAT 15
0285   0F                     DB   15   
0286   00                     DB   lsb(EMPTY)   ; 
0287   00                     DB   lsb(EMPTY)   ; 
0288   00                     DB   lsb(EMPTY)   ; 
0289   00                     DB   lsb(EMPTY)   ; 
028A   00                     DB   lsb(EMPTY)   ; 
028B   00                     DB   lsb(EMPTY)   ; 
028C   00                     DB   lsb(EMPTY)   ; 
028D   00                     DB   lsb(EMPTY)   ; 
028E   00                     DB   lsb(EMPTY)   ; 
028F   00                     DB   lsb(EMPTY)   ; 
0290   00                     DB   lsb(EMPTY)   ; 
0291   00                     DB   lsb(EMPTY)   ; 
0292   00                     DB   lsb(EMPTY)   ; 
0293   00                     DB   lsb(EMPTY)   ; 
0294   00                     DB   lsb(EMPTY)   ; 
0295                          ;*Macro unroll:  LITDAT 5
0295   05                     DB   5   
0296   08                     DB   lsb(aNop_)   ;a0    SP  				;space
0297   08                     DB   lsb(aNop_)   ;a1    \!       			; this is a bug shud be lsb(cstore_)
0298   08                     DB   lsb(aNop_)   ;a2    \"  				
0299   D9                     DB   lsb(util_)   ;a3    \#  utility command		; table of special routines ie #5 etc				
029A   93                     DB   lsb(newln_)   ;a4    \$  prints a newline to output	
029B                             ; REPDAT 3, lsb(aNop_)
029B                          ;*Macro unroll:  LITDAT 3
029B   03                     DB   3   
029C   08                     DB   lsb(aNop_)   ; 
029D   08                     DB   lsb(aNop_)   ; 
029E   08                     DB   lsb(aNop_)   ; 
029F                          ;*Macro unroll:  LITDAT 8
029F   08                     DB   8   
02A0   08                     DB   lsb(aNop_)   ;a8    \(  ( b -- )
02A1   08                     DB   lsb(aNop_)   ;a9    \)
02A2   08                     DB   lsb(aNop_)   ;aa    \*
02A3   08                     DB   lsb(aNop_)   ;ab    \+
02A4   3C                     DB   lsb(emit_)   ;ac    \,  ( b -- ) prints a char
02A5   08                     DB   lsb(aNop_)   ;ad    \-
02A6   A1                     DB   lsb(prnStr_)   ;ae    \.  ( b -- ) prints a string from add term by null char
02A7   08                     DB   lsb(aNop_)   ;af    \/
02A8                             ; REPDAT 10, lsb(aNop_)
02A8                          ;*Macro unroll:  LITDAT 10
02A8   0A                     DB   10   
02A9   08                     DB   lsb(aNop_)   ; 
02AA   08                     DB   lsb(aNop_)   ; 
02AB   08                     DB   lsb(aNop_)   ; 
02AC   08                     DB   lsb(aNop_)   ; 
02AD   08                     DB   lsb(aNop_)   ; 
02AE   08                     DB   lsb(aNop_)   ; 
02AF   08                     DB   lsb(aNop_)   ; 
02B0   08                     DB   lsb(aNop_)   ; 
02B1   08                     DB   lsb(aNop_)   ; 
02B2   08                     DB   lsb(aNop_)   ; 
02B3                          ;*Macro unroll:  LITDAT 7
02B3   07                     DB   7   
02B4   0A                     DB   lsb(anonDef_)   ;ba    \:	return add of a anon def, \: 1 2 3;    \\ ret add of this
02B5   08                     DB   lsb(aNop_)   ;bb    \;
02B6   78                     DB   lsb(inPort_)   ;bc    \<  ( port -- val )
02B7   08                     DB   lsb(aNop_)   ;bd    \=
02B8   98                     DB   lsb(outPort_)   ;be    \>  ( val port -- )
02B9   08                     DB   lsb(aNop_)   ;bf    \?
02BA   27                     DB   lsb(cFetch_)   ;c0    \@      byte fetch
02BB                             ; REPDAT 26, lsb(aNop_)
02BB                          ;*Macro unroll:  LITDAT 26
02BB   1A                     DB   26   
02BC   08                     DB   lsb(aNop_)   ; 
02BD   08                     DB   lsb(aNop_)   ; 
02BE   08                     DB   lsb(aNop_)   ; 
02BF   08                     DB   lsb(aNop_)   ; 
02C0   08                     DB   lsb(aNop_)   ; 
02C1   08                     DB   lsb(aNop_)   ; 
02C2   08                     DB   lsb(aNop_)   ; 
02C3   08                     DB   lsb(aNop_)   ; 
02C4   08                     DB   lsb(aNop_)   ; 
02C5   08                     DB   lsb(aNop_)   ; 
02C6   08                     DB   lsb(aNop_)   ; 
02C7   08                     DB   lsb(aNop_)   ; 
02C8   08                     DB   lsb(aNop_)   ; 
02C9   08                     DB   lsb(aNop_)   ; 
02CA   08                     DB   lsb(aNop_)   ; 
02CB   08                     DB   lsb(aNop_)   ; 
02CC   08                     DB   lsb(aNop_)   ; 
02CD   08                     DB   lsb(aNop_)   ; 
02CE   08                     DB   lsb(aNop_)   ; 
02CF   08                     DB   lsb(aNop_)   ; 
02D0   08                     DB   lsb(aNop_)   ; 
02D1   08                     DB   lsb(aNop_)   ; 
02D2   08                     DB   lsb(aNop_)   ; 
02D3   08                     DB   lsb(aNop_)   ; 
02D4   08                     DB   lsb(aNop_)   ; 
02D5   08                     DB   lsb(aNop_)   ; 
02D6                          ;*Macro unroll:  LITDAT 6
02D6   06                     DB   6   
02D7   22                     DB   lsb(cArrDef_)   ;db     \[
02D8   2E                     DB   lsb(comment_)   ;dc     \\  comment text, skips reading until end of line
02D9   08                     DB   lsb(aNop_)   ;dd     \]
02DA   63                     DB   lsb(go_)   ;de     \^  ( -- ? ) execute SCAN definition a is address of SCAN code
02DB   B6                     DB   lsb(eret_)   ;       \_  ( b -- ) conditional early return - stop everything
02DC   BE                     DB   lsb(strDef_)   ;e0     \`  ( -- adr ) defines a string \` string ` then use \. to prt
02DD                             ; REPDAT 8, lsb(altVar_)  ;e1	\a...\h
02DD                          ;*Macro unroll:  LITDAT 8
02DD   08                     DB   8   
02DE   00                     DB   lsb(altVar_)   
02DF   00                     DB   lsb(altVar_)   
02E0   00                     DB   lsb(altVar_)   
02E1   00                     DB   lsb(altVar_)   
02E2   00                     DB   lsb(altVar_)   
02E3   00                     DB   lsb(altVar_)   
02E4   00                     DB   lsb(altVar_)   
02E5   00                     DB   lsb(altVar_)   
02E6                          ;*Macro unroll:  LITDAT 2
02E6   02                     DB   2   
02E7   83                     DB   lsb(i_)   ;e9    i  ; returns index variable of current loop
02E8   89                     DB   lsb(j_)   ;e9    j  ; returns index variable of outer loop     \i+6
02E9                             ; REPDAT 16, lsb(altVar_)		; \k...\z
02E9                          ;*Macro unroll:  LITDAT 16
02E9   10                     DB   16   
02EA   00                     DB   lsb(altVar_)   
02EB   00                     DB   lsb(altVar_)   
02EC   00                     DB   lsb(altVar_)   
02ED   00                     DB   lsb(altVar_)   
02EE   00                     DB   lsb(altVar_)   
02EF   00                     DB   lsb(altVar_)   
02F0   00                     DB   lsb(altVar_)   
02F1   00                     DB   lsb(altVar_)   
02F2   00                     DB   lsb(altVar_)   
02F3   00                     DB   lsb(altVar_)   
02F4   00                     DB   lsb(altVar_)   
02F5   00                     DB   lsb(altVar_)   
02F6   00                     DB   lsb(altVar_)   
02F7   00                     DB   lsb(altVar_)   
02F8   00                     DB   lsb(altVar_)   
02F9   00                     DB   lsb(altVar_)   
02FA                          ;*Macro unroll:  LITDAT 5
02FA   05                     DB   5   
02FB   AD                     DB   lsb(rpop_)   ;       { ( -- n ) pop from SCAN return stack
02FC   08                     DB   lsb(aNop_)   ; 
02FD   A7                     DB   lsb(rpush_)   ;       } ( n -- ) push to return stack
02FE   13                     DB   lsb(break_)   ;       ~ ( b -- ) conditional break from loop
02FF   08                     DB   lsb(aNop_)   ;       DEL
0300                          ;*Macro unroll:  ENDDAT
0300   00                     DB   0   
0301                ETX:         ;=12
0301   21 00 E6               LD   HL,-DSTACK   
0304   39                     ADD   HL,SP   
0305   30 03                  JR   NC,etx1   
0307   31 00 1A               LD   SP,DSTACK   
030A                ETX1:        
030A   18 15                  JR   interpret   
030C                START:       
030C   31 00 1A               LD   SP,DSTACK   ; start of SCAN
030F   CD B2 03               CALL   init   ; setups
0312   CD 05 04               CALL   printStr   ; prog count to stack, put code line 235 on stack then call print
0315   53 43 41 4E 20 56 30 2E 30 0D 0A 00 .CSTR   "SCAN V0.0\r\n"   
0321                INTERPRET:      
0321   CD 7C 08               CALL   prompt   
0324   01 00 00               LD   BC,0   ; load BC with offset into TIB, decide char into tib or execute or control
0327   ED 43 84 1C            LD   (vTIBPtr),BC   
032B                INTERPRET2:      ; calc nesting (a macro might have changed it)
032B   1E 00                  LD   E,0   ; initilize nesting value
032D   C5                     PUSH   BC   ; save offset into TIB,
032E                             ; BC is also the count of chars in TIB
032E   21 00 18               LD   HL,TIB   ; HL is start of TIB
0331   18 06                  JR   interpret4   
0333                INTERPRET3:      
0333   7E                     LD   A,(HL)   ; A = char in TIB
0334   23                     INC   HL   ; inc pointer into TIB
0335   0B                     DEC   BC   ; dec count of chars in TIB
0336   CD 6D 04               CALL   nesting   ; update nesting value
0339                INTERPRET4:      
0339   79                     LD   A,C   ; is count zero?
033A   B0                     OR   B   
033B   20 F6                  JR   NZ,interpret3   ; if not loop
033D   C1                     POP   BC   ; restore offset into TIB
033E                             ; *******************************************************************
033E                             ; Wait for a character from the serial input (keyboard)
033E                             ; and store it in the text buffer. Keep accepting characters,
033E                             ; increasing the instruction pointer BC - until a newline received.
033E                             ; *******************************************************************
033E                WAITCHAR:      
033E   CD 81 00               CALL   getchar   ; loop around waiting for character from serial port
0341   FE 20                  CP   $20   ; compare to space
0343   30 25                  JR   NC,waitchar1   ; if >= space, if below 20 set cary flag
0345   FE 00                  CP   $0   ; is it end of string? null end of string
0347   28 45                  JR   Z,waitchar4   
0349   FE 0D                  CP   "\r"   ; carriage return? ascii 13
034B   28 2B                  JR   Z,waitchar3   ; if anything else its macro/control
034D                             ; LD D,0
034D                MACRO:       ;=25
034D   ED 43 84 1C            LD   (vTIBPtr),BC   
0351   21 80 1B               LD   HL,ctrlCodes   
0354   85                     ADD   A,L   ;look up key of macros
0355   6F                     LD   L,A   
0356   5E                     LD   E,(HL)   
0357   7B                     LD   A,E   
0358   B7                     OR   A   
0359   28 09                  JR   Z,macro1   
035B   16 01                  LD   D,msb(macros)   
035D   D5                     PUSH   DE   
035E   CD FC 03               CALL   ENTER   ;SCAN go operation and jump to it
0361   5C 5E 00               .CSTR   "\\^"   
0364                MACRO1:      
0364   ED 4B 84 1C            LD   BC,(vTIBPtr)   
0368   18 C1                  JR   interpret2   
036A                WAITCHAR1:      
036A   21 00 18               LD   HL,TIB   
036D   09                     ADD   HL,BC   
036E   77                     LD   (HL),A   ; store the character in textbuf
036F   03                     INC   BC   
0370   CD 85 00               CALL   putchar   ; echo character to screen
0373   CD 6D 04               CALL   nesting   
0376   18 C6                  JR   waitchar   ; wait for next character
0378                WAITCHAR3:      
0378   21 00 18               LD   HL,TIB   
037B   09                     ADD   HL,BC   
037C   36 0D                  LD   (HL),"\r"   ; store the crlf in textbuf
037E   23                     INC   HL   
037F   36 0A                  LD   (HL),"\n"   
0381   23                     INC   HL   ; ????
0382   03                     INC   BC   
0383   03                     INC   BC   
0384   CD D9 08               CALL   crlf   ; echo character to screen
0387   7B                     LD   A,E   ; if zero nesting append and ETX after \r
0388   B7                     OR   A   
0389   20 B3                  JR   NZ,waitchar   
038B   36 03                  LD   (HL),$03   ; store end of text ETX in text buffer
038D   03                     INC   BC   
038E                WAITCHAR4:      
038E   ED 43 84 1C            LD   (vTIBPtr),BC   
0392   01 00 18               LD   BC,TIB   ; Instructions stored on heap at address HERE, we pressed enter
0395   0B                     DEC   BC   
0396                             ; ********************************************************************************
0396                             ; 
0396                             ; Dispatch Routine.
0396                             ; 
0396                             ; Get the next character and form a 1 byte jump address
0396                             ; 
0396                             ; This target jump address is loaded into HL, and using JP (HL) to quickly
0396                             ; jump to the selected function.
0396                             ; 
0396                             ; Individual handler routines will deal with each category:
0396                             ; 
0396                             ; 1. Detect characters A-Z and jump to the User Command handler routine
0396                             ; 
0396                             ; 2. Detect characters a-z and jump to the variable handler routine
0396                             ; 
0396                             ; 3. All other characters are punctuation and cause a jump to the associated
0396                             ; primitive code.
0396                             ; 
0396                             ; Instruction Pointer IP BC is incremented
0396                             ; 
0396                             ; *********************************************************************************
0396                NEXT:        ;=9
0396   03                     INC   BC   ;       Increment the IP
0397   0A                     LD   A,(BC)   ;       Get the next character and dispatch
0398   6F                     LD   L,A   ;       Index into table
0399   26 1B                  LD   H,msb(opcodes)   ;       Start address of jump table
039B   6E                     LD   L,(HL)   ;       get low jump address
039C   26 05                  LD   H,msb(page4)   ;       Load H with the 1st page address
039E   E9                     JP   (HL)   ;       Jump to routine
039F                             ; ARRAY compilation routine
039F                COMPNEXT:      ;=20
039F   D1                     POP   DE   ; DE = return address
03A0   2A 8E 1C               LD   HL,(vHeapPtr)   ; load heap ptr
03A3   73                     LD   (HL),E   ; store lsb
03A4   3A 32 1C               LD   A,(vByteMode)   
03A7   23                     INC   HL   
03A8   B7                     OR   A   
03A9   20 02                  JR   NZ,compNext1   
03AB   72                     LD   (HL),D   
03AC   23                     INC   HL   
03AD                COMPNEXT1:      
03AD   22 8E 1C               LD   (vHeapPtr),HL   ; save heap ptr
03B0   18 E4                  JR   NEXT   
03B2                INIT:        ;=68
03B2   21 80 1A               LD   HL,LSTACK   
03B5   22 30 1C               LD   (vLoopSP),HL   ; Loop stack pointer stored in memory
03B8   DD 21 80 19            LD   IX,RSTACK   
03BC   FD 21 96 03            LD   IY,NEXT   ; IY provides a faster jump to NEXT
03C0   21 DA 01               LD   HL,ialtVars   
03C3   11 80 1C               LD   DE,altVars   
03C6   01 10 00               LD   BC,8 * 2   
03C9   ED B0                  LDIR      
03CB   21 C0 1C               LD   HL,mintData   ; init namespaces to 0 using LDIR
03CE   54 5D                  LD   DE,HL   
03D0   13                     INC   DE   
03D1   36 00                  LD   (HL),0   
03D3   01 68 00               LD   BC,mintDataSize   
03D6   ED B0                  LDIR      
03D8                INITOPS:      
03D8   21 EA 01               LD   HL,iOpcodes   
03DB   11 00 1B               LD   DE,opcodes   
03DE   01 00 01               LD   BC,256   
03E1                INITOPS1:      
03E1   7E                     LD   A,(HL)   
03E2   23                     INC   HL   
03E3   CB 27                  SLA   A   
03E5   C8                     RET   Z   
03E6   38 09                  JR   C,initOps2   
03E8   CB 3F                  SRL   A   
03EA   4F                     LD   C,A   
03EB   06 00                  LD   B,0   
03ED   ED B0                  LDIR      
03EF   18 F0                  JR   initOps1   
03F1                INITOPS2:      
03F1   CB 3F                  SRL   A   
03F3   47                     LD   B,A   
03F4   7E                     LD   A,(HL)   
03F5   23                     INC   HL   
03F6                INITOPS2A:      
03F6   12                     LD   (DE),A   
03F7   13                     INC   DE   
03F8   10 FC                  DJNZ   initOps2a   
03FA   18 E5                  JR   initOps1   
03FC                ENTER:       ;=9
03FC   60 69                  LD   HL,BC   
03FE   CD 8E 08               CALL   rpush   ; save Instruction Pointer
0401   C1                     POP   BC   
0402   0B                     DEC   BC   
0403   FD E9                  JP   (IY)   
0405                PRINTSTR:      ;=14
0405   E3                     EX   (SP),HL   ; swap			
0406   CD 89 08               CALL   putStr   
0409   23                     INC   HL   ; inc past null
040A   E3                     EX   (SP),HL   ; put it back	
040B   C9                     RET      
040C                LOOKUPREF:      
040C   16 00                  LD   D,0   
040E                LOOKUPREF0:      
040E   FE 61                  CP   "a"   
0410   30 06                  JR   NC,lookupRef2   
0412                LOOKUPREF1:      
0412   D6 41                  SUB   "A"   
0414   1E 00                  LD   E,0   
0416   18 04                  JR   lookupRef3   
0418                LOOKUPREF2:      
0418   D6 61                  SUB   "a"   
041A   1E 34                  LD   E,26*2   
041C                LOOKUPREF3:      
041C   87                     ADD   A,A   
041D   83                     ADD   A,E   
041E   21 C0 1C               LD   HL,mintData   
0421   85                     ADD   A,L   
0422   6F                     LD   L,A   
0423   3E 00                  LD   A,0   
0425   8C                     ADC   A,H   
0426   67                     LD   H,A   
0427   AF                     XOR   A   
0428   B3                     OR   E   ; sets Z flag if A-Z
0429   C9                     RET      
042A                PRINTDEC:      ;=36
042A   11 F0 D8               LD   DE,-10000   ; SCAN ., 5th location of a dev number
042D   CD 43 04               CALL   printdec1   ; text book method look it up
0430   11 18 FC               LD   DE,-1000   
0433   CD 43 04               CALL   printdec1   
0436   11 9C FF               LD   DE,-100   
0439   CD 43 04               CALL   printdec1   
043C   1E F6                  LD   E,-10   
043E   CD 43 04               CALL   printdec1   
0441   1E FF                  LD   E,-1   
0443                PRINTDEC1:      
0443   3E 2F                  LD   A,"0"-1   
0445                PRINTDEC2:      
0445   3C                     INC   A   
0446   19                     ADD   HL,DE   
0447   38 FC                  JR   C,printdec2   
0449   ED 52                  SBC   HL,DE   
044B   C3 85 00               JP   putchar   
044E                PRINTHEX:      ;=31
044E                             ; Display HL as a 16-bit number in hex.
044E   C5                     PUSH   BC   ; preserve the IP
044F   7C                     LD   A,H   
0450   CD 59 04               CALL   printhex2   
0453   7D                     LD   A,L   
0454   CD 59 04               CALL   printhex2   
0457   C1                     POP   BC   
0458   C9                     RET      
0459                PRINTHEX2:      
0459   4F                     LD   C,A   
045A   1F                     RRA      
045B   1F                     RRA      
045C   1F                     RRA      
045D   1F                     RRA      
045E   CD 62 04               CALL   printhex3   
0461   79                     LD   A,C   
0462                PRINTHEX3:      
0462   E6 0F                  AND   0x0F   
0464   C6 90                  ADD   A,0x90   
0466   27                     DAA      
0467   CE 40                  ADC   A,0x40   
0469   27                     DAA      
046A   C3 85 00               JP   putchar   
046D                             ; **************************************************************************
046D                             ; calculate nesting value
046D                             ; A is char to be tested,
046D                             ; E is the nesting value (initially 0)
046D                             ; E is increased by ( and [
046D                             ; E is decreased by ) and ]
046D                             ; E has its bit 7 toggled by `
046D                             ; limited to 127 levels
046D                             ; **************************************************************************
046D                NESTING:      ;=44
046D   FE 60                  CP   "`"   
046F   20 0A                  JR   NZ,nesting1   
0471   CB 7B                  BIT   7,E   
0473   28 03                  JR   Z,nesting1a   
0475   CB BB                  RES   7,E   
0477   C9                     RET      
0478                NESTING1A:      
0478   CB FB                  SET   7,E   
047A   C9                     RET      
047B                NESTING1:      
047B   CB 7B                  BIT   7,E   
047D   C0                     RET   NZ   
047E   FE 3A                  CP   ":"   
0480   28 08                  JR   Z,nesting2   
0482   FE 5B                  CP   "["   
0484   28 04                  JR   Z,nesting2   
0486   FE 28                  CP   "("   
0488   20 02                  JR   NZ,nesting3   
048A                NESTING2:      
048A   1C                     INC   E   
048B   C9                     RET      
048C                NESTING3:      
048C   FE 3B                  CP   ";"   
048E   28 07                  JR   Z,nesting4   
0490   FE 5D                  CP   "]"   
0492   28 03                  JR   Z,nesting4   
0494   FE 29                  CP   ")"   
0496   C0                     RET   NZ   
0497                NESTING4:      
0497   1D                     DEC   E   
0498   C9                     RET      
0499                             ; **********************************************************************			
0499                             ; Page 4 primitive routines
0499                             ; **********************************************************************
0499                          ALIGN   $100   
0500                PAGE4:       
0500                AND_:        
0500   D1                     POP   DE   ;     Bitwise AND the top 2 elements of the stack
0501   E1                     POP   HL   ; 
0502   7B                     LD   A,E   ; 
0503   A5                     AND   L   ; 
0504   6F                     LD   L,A   ; 
0505   7A                     LD   A,D   ; 
0506   A4                     AND   H   ; 
0507                AND1:        
0507   67                     LD   H,A   ; 
0508   E5                     PUSH   HL   ; 
0509   FD E9                  JP   (IY)   ; 
050B                             ; 
050B                OR_:         
050B   D1                     POP   DE   ; Bitwise OR the top 2 elements of the stack
050C   E1                     POP   HL   
050D   7B                     LD   A,E   
050E   B5                     OR   L   
050F   6F                     LD   L,A   
0510   7A                     LD   A,D   
0511   B4                     OR   H   
0512   18 F3                  JR   and1   
0514                XOR_:        
0514   D1                     POP   DE   ; Bitwise XOR the top 2 elements of the stack
0515                XOR1:        
0515   E1                     POP   HL   
0516   7B                     LD   A,E   
0517   AD                     XOR   L   
0518   6F                     LD   L,A   
0519   7A                     LD   A,D   
051A   AC                     XOR   H   
051B   18 EA                  JR   and1   
051D                INV_:        ; Bitwise INVert the top member of the stack
051D   11 FF FF               LD   DE,$FFFF   ; by xoring with $FFFF
0520   18 F3                  JR   xor1   
0522                ADD_:        ; Add the top 2 members of the stack
0522   D1                     POP   DE   
0523   E1                     POP   HL   
0524   19                     ADD   HL,DE   
0525   E5                     PUSH   HL   
0526   FD E9                  JP   (IY)   
0528   C3 B6 06     AGAIN_:   JP   again   ; close loop
052B                ARRDEF_:      
052B                ARRDEF:      ;=18
052B   3E 00                  LD   A,FALSE   
052D                ARRDEF1:      
052D   FD 21 9F 03            LD   IY,compNEXT   
0531   32 32 1C               LD   (vByteMode),A   
0534   2A 8E 1C               LD   HL,(vHeapPtr)   ; HL = heap ptr
0537   CD 8E 08               CALL   rpush   ; save start of array \[  \]
053A   C3 96 03               JP   NEXT   ; hardwired to NEXT
053D                CALL_:       
053D   0A                     LD   A,(BC)   
053E   CD 12 04               CALL   lookupRef1   
0541   5E                     LD   E,(HL)   
0542   23                     INC   HL   
0543   56                     LD   D,(HL)   
0544   C3 64 07               JP   go1   
0547                DOT_:        
0547   E1                     POP   HL   
0548   CD 2A 04               CALL   printdec   
054B                DOT2:        
054B   3E 20                  LD   A," "   
054D   CD 85 00               CALL   putChar   
0550   FD E9                  JP   (IY)   
0552                HDOT_:       ; print hexadecimal
0552   E1                     POP   HL   
0553   CD 4E 04               CALL   printhex   
0556   18 F3                  JR   dot2   
0558                DROP_:       ; Discard the top member of the stack
0558   E1                     POP   HL   
0559   FD E9                  JP   (IY)   
055B                DUP_:        
055B   E1                     POP   HL   ; Duplicate the top member of the stack
055C   E5                     PUSH   HL   
055D   E5                     PUSH   HL   
055E   FD E9                  JP   (IY)   
0560                ETX_:        
0560   C3 01 03               JP   ETX   
0563                EXIT_:       
0563   03                     INC   BC   ; store offests into a table of bytes, smaller
0564   50 59                  LD   DE,BC   
0566   CD 99 08               CALL   rpop   ; Restore Instruction pointer
0569   44 4D                  LD   BC,HL   
056B   EB                     EX   DE,HL   
056C   E9                     JP   (HL)   
056D                FETCH_:      ; Fetch the value from the address placed on the top of the stack
056D   E1                     POP   HL   
056E                FETCH1:      
056E   5E                     LD   E,(HL)   
056F   23                     INC   HL   
0570   56                     LD   D,(HL)   
0571   D5                     PUSH   DE   
0572   FD E9                  JP   (IY)   
0574   C3 5F 08     HEX_:     JP   hex   
0577                KEY_:        
0577   CD 81 00               CALL   getchar   
057A   26 00                  LD   H,0   
057C   6F                     LD   L,A   
057D   E5                     PUSH   HL   
057E   FD E9                  JP   (IY)   
0580   C3 21 08     MUL_:     JP   mul   
0583                NOP_:        
0583   C3 96 03               JP   NEXT   ; hardwire white space to always go to NEXT (important for arrays)
0586                OVER_:       
0586   E1                     POP   HL   ; Duplicate 2nd element of the stack
0587   D1                     POP   DE   
0588   D5                     PUSH   DE   
0589   E5                     PUSH   HL   
058A   D5                     PUSH   DE   ; And push it to top of stack
058B   FD E9                  JP   (IY)   
058D                RET_:        
058D   CD 99 08               CALL   rpop   ; Restore Instruction pointer
0590   44 4D                  LD   BC,HL   
0592   FD E9                  JP   (IY)   
0594                ROT_:        ; a b c -- b c a
0594   D1                     POP   DE   ; a b                   de = c
0595   E1                     POP   HL   ; a                     hl = b
0596   E3                     EX   (SP),HL   ; b                     hl = a
0597   D5                     PUSH   DE   ; b c
0598   E5                     PUSH   HL   ; b c a
0599   FD E9                  JP   (IY)   
059B                             ;  Left shift { is multiply by 2		
059B                SHL_:        
059B   E1                     POP   HL   ; Duplicate the top member of the stack
059C   29                     ADD   HL,HL   
059D   E5                     PUSH   HL   ; shift left fallthrough into add_
059E   FD E9                  JP   (IY)   ; 
05A0                             ;  Right shift } is a divide by 2		
05A0                SHR_:        
05A0   E1                     POP   HL   ; Get the top member of the stack
05A1                SHR1:        
05A1   CB 3C                  SRL   H   
05A3   CB 1D                  RR   L   
05A5   E5                     PUSH   HL   
05A6   FD E9                  JP   (IY)   ; 
05A8                STORE_:      ; Store the value at the address placed on the top of the stack
05A8   E1                     POP   HL   
05A9   D1                     POP   DE   
05AA   73                     LD   (HL),E   
05AB   23                     INC   HL   
05AC   72                     LD   (HL),D   
05AD   FD E9                  JP   (IY)   
05AF                             ; $ swap                        ; a b -- b a Swap the top 2 elements of the stack
05AF                SWAP_:       
05AF   E1                     POP   HL   
05B0   E3                     EX   (SP),HL   
05B1   E5                     PUSH   HL   
05B2   FD E9                  JP   (IY)   
05B4                SUB_:        ; Subtract the value 2nd on stack from top of stack
05B4   D1                     POP   DE   ; 
05B5   E1                     POP   HL   ;      Entry point for INVert
05B6                SUB2:        
05B6   A7                     AND   A   ;      Entry point for NEGate
05B7   ED 52                  SBC   HL,DE   ; 15t
05B9   E5                     PUSH   HL   ; 
05BA   FD E9                  JP   (IY)   ; 
05BC                             ; 5
05BC                NEG_:        
05BC   21 00 00               LD   HL,0   ; NEGate the value on top of stack (2's complement)
05BF   D1                     POP   DE   ; 
05C0   18 F4                  JR   sub2   ; use the SUBtract routine
05C2                EQ_:         
05C2   E1                     POP   HL   
05C3   D1                     POP   DE   
05C4   A7                     AND   A   ; reset the carry flag
05C5   ED 52                  SBC   HL,DE   ; only equality sets HL=0 here
05C7   28 16                  JR   Z,equal   
05C9   21 00 00               LD   HL,0   
05CC   18 12                  JR   less   ; HL = 1
05CE                GT_:         
05CE   D1                     POP   DE   
05CF   E1                     POP   HL   
05D0   18 02                  JR   cmp_   
05D2                LT_:         
05D2   E1                     POP   HL   
05D3   D1                     POP   DE   
05D4                CMP_:        
05D4   A7                     AND   A   ; reset the carry flag
05D5   ED 52                  SBC   HL,DE   ; only equality sets HL=0 here
05D7   28 07                  JR   Z,less   ; equality returns 0  KB 25/11/21
05D9   21 00 00               LD   HL,0   
05DC   FA E0 05               JP   M,less   
05DF                EQUAL:       
05DF   2C                     INC   L   ; HL = 1
05E0                LESS:        
05E0   E5                     PUSH   HL   
05E1   FD E9                  JP   (IY)   
05E3                VAR_:        
05E3   0A                     LD   A,(BC)   
05E4   CD 18 04               CALL   lookupRef2   
05E7   E5                     PUSH   HL   
05E8   FD E9                  JP   (IY)   
05EA   C3 3D 08     NUM_:     JP   num   
05ED   18 15        STR_:     JR   str   
05EF   18 22        ARREND_:   JR   arrEnd   
05F1   18 3C        DEF_:     JR   def   
05F3   18 5B        DIV_:     JR   div   
05F5   18 7B        BEGIN_:   JR   begin   
05F7                ALT_:        
05F7                             ;*******************************************************************
05F7                             ; Page 5 primitive routines
05F7                             ;*******************************************************************
05F7                             ;falls through
05F7                ALT:         ;=11
05F7   03                     INC   BC   
05F8   0A                     LD   A,(BC)   
05F9   21 80 1B               LD   HL,altCodes   
05FC   85                     ADD   A,L   
05FD   6F                     LD   L,A   
05FE                ALT2:        
05FE   7E                     LD   A,(HL)   ;       get low jump address
05FF   2A 8C 1C               LD   HL,(vAltPage)   
0602   6F                     LD   L,A   
0603   E9                     JP   (HL)   ;       Jump to routine
0604                STR:         ;=15
0604   03                     INC   BC   
0605                STR1:        
0605   0A                     LD   A,(BC)   
0606   03                     INC   BC   
0607   FE 60                  CP   "`"   ; ` is the string terminator
0609   28 05                  JR   Z,str2   
060B   CD 85 00               CALL   putchar   
060E   18 F5                  JR   str1   
0610                STR2:        
0610   0B                     DEC   BC   
0611   FD E9                  JP   (IY)   
0613                ARREND:      ;=27
0613   CD 99 08               CALL   rpop   ; DE = start of array
0616   E5                     PUSH   HL   
0617   EB                     EX   DE,HL   
0618   2A 8E 1C               LD   HL,(vHeapPtr)   ; HL = heap ptr
061B   B7                     OR   A   
061C   ED 52                  SBC   HL,DE   ; bytes on heap
061E   3A 32 1C               LD   A,(vByteMode)   
0621   B7                     OR   A   
0622   20 04                  JR   NZ,arrEnd2   
0624   CB 3C                  SRL   H   ; BC = m words
0626   CB 1D                  RR   L   
0628                ARREND2:      
0628   E5                     PUSH   HL   
0629   FD 21 96 03            LD   IY,NEXT   
062D   FD E9                  JP   (IY)   ; hardwired to NEXT
062F                             ; **************************************************************************
062F                             ; def is used to create a colon definition
062F                             ; When a colon is detected, the next character (usually uppercase alpha)
062F                             ; is looked up in the vector table to get its associated code field address
062F                             ; This CFA is updated to point to the character after uppercase alpha
062F                             ; The remainder of the characters are then skipped until after a semicolon
062F                             ; is found.
062F                             ; ***************************************************************************
062F                DEF:         ; Create a colon definition
062F   03                     INC   BC   
0630   0A                     LD   A,(BC)   ; Get the next character
0631   32 88 1C               LD   (vLastDef),A   
0634   CD 0C 04               CALL   lookupRef   
0637   ED 5B 8E 1C            LD   DE,(vHeapPtr)   ; start of defintion
063B   73                     LD   (HL),E   ; Save low byte of address in CFA
063C   23                     INC   HL   
063D   72                     LD   (HL),D   ; Save high byte of address in CFA+1
063E   03                     INC   BC   
063F                DEF1:        ; Skip to end of definition
063F   0A                     LD   A,(BC)   ; Get the next character
0640   03                     INC   BC   ; Point to next character
0641   12                     LD   (DE),A   
0642   13                     INC   DE   
0643   FE 3B                  CP   ";"   ; Is it a semicolon
0645   28 02                  JR   Z,def2   ; end the definition
0647   18 F6                  JR   def1   ; get the next element
0649                DEF2:        
0649   0B                     DEC   BC   
064A                DEF3:        
064A   ED 53 8E 1C            LD   (vHeapPtr),DE   ; bump heap ptr to after definiton
064E   FD E9                  JP   (IY)   
0650                             ; ********************************************************************
0650                             ; 16-bit division subroutine.
0650                             ; 
0650                             ; BC: divisor, DE: dividend, HL: remainder
0650                             ; *********************************************************************
0650                             ; This divides DE by BC, storing the result in DE, remainder in HL
0650                             ; *********************************************************************
0650                             ; 1382 cycles
0650                             ; 35 bytes (reduced from 48)
0650                             ; 
0650                DIV:         ;=34
0650   D1                     POP   DE   ; get first value
0651   E1                     POP   HL   ; get 2nd value
0652   C5                     PUSH   BC   ; Preserve the IP
0653   44                     LD   B,H   ; BC = 2nd value
0654   4D                     LD   C,L   
0655                             ; 
0655   21 00 00               LD   HL,0   ; Zero the remainder
0658   3E 10                  LD   A,16   ; Loop counter
065A                DIV1:        ;shift the bits from BC (numerator) into HL (accumulator)
065A   CB 21                  SLA   C   
065C   CB 10                  RL   B   
065E   ED 6A                  ADC   HL,HL   
0660   ED 52                  SBC   HL,DE   ;Check if remainder >= denominator (HL>=DE)
0662   38 03                  JR   C,div2   
0664   0C                     INC   C   
0665   18 01                  JR   div3   
0667                DIV2:        ; remainder is not >= denominator, so we have to add DE back to HL
0667   19                     ADD   hl,de   
0668                DIV3:        
0668   3D                     DEC   A   
0669   20 EF                  JR   NZ,div1   
066B   50                     LD   D,B   ; Result from BC to DE
066C   59                     LD   E,C   
066D                DIV4:        
066D   C1                     POP   BC   ; Restore the IP
066E   D5                     PUSH   DE   ; Push Result
066F   E5                     PUSH   HL   ; Push remainder
0670   FD E9                  JP   (IY)   
0672                             ;=57
0672                BEGIN:       ; Left parentheses begins a loop
0672   E1                     POP   HL   
0673   7D                     LD   A,L   ; zero?
0674   B4                     OR   H   
0675   28 27                  JR   Z,begin1   
0677   DD E5                  PUSH   IX   
0679   DD 2A 30 1C            LD   IX,(vLoopSP)   
067D   11 FA FF               LD   DE,-6   
0680   DD 19                  ADD   IX,DE   
0682   DD 36 00 00            LD   (IX+0),0   ; loop var
0686   DD 36 01 00            LD   (IX+1),0   
068A   DD 75 02               LD   (IX+2),L   ; loop limit
068D   DD 74 03               LD   (IX+3),H   
0690   DD 71 04               LD   (IX+4),C   ; loop address
0693   DD 70 05               LD   (IX+5),B   
0696   DD 22 30 1C            LD   (vLoopSP),IX   
069A   DD E1                  POP   IX   
069C   FD E9                  JP   (IY)   
069E                BEGIN1:      
069E   1E 01                  LD   E,1   
06A0                BEGIN2:      
06A0   03                     INC   BC   
06A1   0A                     LD   A,(BC)   
06A2   CD 6D 04               CALL   nesting   
06A5   AF                     XOR   A   
06A6   B3                     OR   E   
06A7   20 F7                  JR   NZ,begin2   
06A9   21 01 00               LD   HL,1   
06AC                BEGIN3:      
06AC   03                     INC   BC   
06AD   0A                     LD   A,(BC)   
06AE   0B                     DEC   BC   
06AF   FE 28                  CP   "("   
06B1   20 01                  JR   NZ,begin4   
06B3   E5                     PUSH   HL   
06B4                BEGIN4:      
06B4   FD E9                  JP   (IY)   
06B6                AGAIN:       ;=72
06B6   DD E5                  PUSH   IX   
06B8   DD 2A 30 1C            LD   IX,(vLoopSP)   
06BC   DD 5E 00               LD   E,(IX+0)   ; peek loop var
06BF   DD 56 01               LD   D,(IX+1)   
06C2   DD 6E 02               LD   L,(IX+2)   ; peek loop limit
06C5   DD 66 03               LD   H,(IX+3)   
06C8   2B                     DEC   HL   
06C9   B7                     OR   A   
06CA   ED 52                  SBC   HL,DE   
06CC   28 0F                  JR   Z,again2   
06CE   13                     INC   DE   
06CF   DD 73 00               LD   (IX+0),E   ; poke loop var
06D2   DD 72 01               LD   (IX+1),D   
06D5                AGAIN1:      
06D5   DD 4E 04               LD   C,(IX+4)   ; peek loop address
06D8   DD 46 05               LD   B,(IX+5)   
06DB   18 05                  JR   again4   
06DD                AGAIN2:      
06DD   11 06 00               LD   DE,6   ; drop loop frame
06E0                AGAIN3:      
06E0   DD 19                  ADD   IX,DE   
06E2                AGAIN4:      
06E2   DD 22 30 1C            LD   (vLoopSP),IX   
06E6   DD E1                  POP   IX   
06E8   21 00 00               LD   HL,0   ; skip ELSE clause
06EB   18 BF                  JR   begin3   
06ED                             ; **************************************************************************
06ED                             ; Page 6 Alt primitives
06ED                             ; **************************************************************************
06ED                          ALIGN   $100   
0700                PAGE6:       
0700                ALTVAR_:      
0700   0A                     LD   A,(BC)   
0701   D6 21                  SUB   "a" - ((altVars - mintVars)/2)   
0703   87                     ADD   A,A   
0704   26 1C                  LD   H,msb(mintVars)   
0706   6F                     LD   L,A   
0707   E5                     PUSH   HL   
0708                ANOP_:       
0708   FD E9                  JP   (IY)   
070A                ANONDEF_:      ;= 7
070A   03                     INC   BC   
070B   ED 5B 8E 1C            LD   DE,(vHeapPtr)   ; start of defintion
070F   D5                     PUSH   DE   
0710   C3 3F 06               JP   def1   
0713                BREAK_:      
0713   E1                     POP   HL   
0714   7D                     LD   A,L   ; zero?
0715   B4                     OR   H   
0716   20 02                  JR   NZ,break1   
0718   FD E9                  JP   (IY)   
071A                BREAK1:      
071A   11 06 00               LD   DE,6   ; drop loop frame
071D   DD 19                  ADD   IX,DE   
071F   C3 9E 06               JP   begin1   ; skip to end of loop
0722                CARRDEF_:      ; define a byte array
0722   3E 01                  LD   A,TRUE   
0724   C3 2D 05               JP   arrDef1   
0727                CFETCH_:      
0727   E1                     POP   HL   
0728   16 00                  LD   D,0   
072A   5E                     LD   E,(HL)   
072B   D5                     PUSH   DE   
072C   FD E9                  JP   (IY)   
072E                COMMENT_:      
072E   03                     INC   BC   ; point to next char
072F   0A                     LD   A,(BC)   
0730   FE 0D                  CP   "\r"   ; terminate at cr
0732   20 FA                  JR   NZ,comment_   
0734   0B                     DEC   BC   
0735   FD E9                  JP   (IY)   
0737                CSTORE_:      
0737   E1                     POP   HL   
0738   D1                     POP   DE   
0739   73                     LD   (HL),E   
073A   FD E9                  JP   (IY)   
073C                EMIT_:       
073C   E1                     POP   HL   
073D   7D                     LD   A,L   
073E   CD 85 00               CALL   putchar   
0741   FD E9                  JP   (IY)   
0743                EXEC_:       
0743   CD 48 07               CALL   exec1   
0746   FD E9                  JP   (IY)   
0748                EXEC1:       
0748   E1                     POP   HL   
0749   E3                     EX   (SP),HL   
074A   E9                     JP   (HL)   
074B                DEPTH_:      
074B   21 00 00               LD   HL,0   
074E   39                     ADD   HL,SP   
074F   EB                     EX   DE,HL   
0750   21 00 1A               LD   HL,DSTACK   
0753   B7                     OR   A   
0754   ED 52                  SBC   HL,DE   
0756   C3 A1 05               JP   shr1   
0759                EDITDEF_:      
0759   CD A4 08               CALL   editDef   
075C   FD E9                  JP   (IY)   
075E                PROMPT_:      
075E   CD 7C 08               CALL   prompt   
0761   FD E9                  JP   (IY)   
0763                GO_:         ;\^
0763   D1                     POP   DE   
0764                GO1:         
0764   7A                     LD   A,D   ; skip if destination address is null
0765   B3                     OR   E   
0766   28 0E                  JR   Z,go3   
0768   60 69                  LD   HL,BC   
076A   03                     INC   BC   ; read next char from source
076B   0A                     LD   A,(BC)   ; if ; to tail call optimise
076C   FE 3B                  CP   ";"   ; by jumping to rather than calling destination
076E   28 03                  JR   Z,go2   
0770   CD 8E 08               CALL   rpush   ; save Instruction Pointer
0773                GO2:         
0773   42 4B                  LD   BC,DE   
0775   0B                     DEC   BC   
0776                GO3:         
0776   FD E9                  JP   (IY)   
0778                INPORT_:      ; \<
0778   E1                     POP   HL   
0779   79                     LD   A,C   
077A   4D                     LD   C,L   
077B   ED 68                  IN   L,(C)   
077D   26 00                  LD   H,0   
077F   4F                     LD   C,A   
0780   E5                     PUSH   HL   
0781   FD E9                  JP   (IY)   
0783                I_:          
0783   2A 30 1C               LD   HL,(vLoopSP)   
0786   E5                     PUSH   HL   
0787   FD E9                  JP   (IY)   
0789                J_:          ;=9
0789   2A 30 1C               LD   HL,(vLoopSP)   ;the address of j is 6 bytes more than i
078C   11 06 00               LD   DE,6   
078F   19                     ADD   HL,DE   
0790   E5                     PUSH   HL   
0791   FD E9                  JP   (IY)   
0793                NEWLN_:      
0793   CD D9 08               CALL   crlf   
0796   FD E9                  JP   (IY)   
0798                OUTPORT_:      
0798   E1                     POP   HL   
0799   59                     LD   E,C   
079A   4D                     LD   C,L   
079B   E1                     POP   HL   
079C   ED 69                  OUT   (C),L   
079E   4B                     LD   C,E   
079F   FD E9                  JP   (IY)   
07A1                PRNSTR_:      
07A1                PRNSTR:      
07A1   E1                     POP   HL   
07A2   CD 89 08               CALL   putStr   
07A5   FD E9                  JP   (IY)   
07A7                RPUSH_:      
07A7   E1                     POP   HL   
07A8   CD 8E 08               CALL   rpush   
07AB   FD E9                  JP   (IY)   
07AD                RPOP_:       
07AD   CD 99 08               CALL   rpop   
07B0   E5                     PUSH   HL   
07B1   FD E9                  JP   (IY)   
07B3                ADUP_:       
07B3   C3 5B 05               JP   dup_   
07B6                ERET_:       
07B6   E1                     POP   HL   
07B7   7D                     LD   A,L   
07B8   B4                     OR   H   
07B9   C2 8D 05               JP   NZ,ret_   
07BC   FD E9                  JP   (IY)   
07BE                STRDEF_:      
07BE   18 4B                  JR   strDef   
07C0                UNLOOP_:      ;=  ( n -- ) unloop  loop frames (n < 64)
07C0   D1                     POP   DE   ; DE = num frames
07C1   CB 23                  SLA   E   ; E' = E * 2
07C3   7B                     LD   A,E   ; A = E'
07C4   CB 23                  SLA   E   ; E"" = E' * 2
07C6   83                     ADD   A,E   ; A = num frames * 6
07C7   5F                     LD   E,A   ; D = 0, DE = num frames * 6
07C8   2A 30 1C               LD   HL,(vLoopSP)   ; HL = loop stack ptr
07CB   19                     ADD   HL,DE   ; pop frames
07CC   22 30 1C               LD   (vLoopSP),HL   
07CF   FD E9                  JP   (IY)   
07D1                             ; **************************************************************************
07D1                             ; utilTable and util_ MUST be on the same page, assumes same msb
07D1                             ; **************************************************************************
07D1                             ;\#1... for machine code
07D1                UTILTABLE:      
07D1   43                     DB   lsb(exec_)   ;\#0    ( adr -- )    if not null execute code at adr
07D2   B6                     DB   lsb(eret_)   ;\#1    ( b -- )      conditional early return
07D3   C0                     DB   lsb(unloop_)   ;\#2    ( n -- )      pop n loop frames from loop stack
07D4   4B                     DB   lsb(depth_)   ;\#3    ( -- val )    depth of data stack
07D5   E3                     DB   lsb(printStk_)   ;\#4    ( -- )        non-destructively prints stack
07D6   5E                     DB   lsb(prompt_)   ;\#5    ( -- )        print SCAN prompt
07D7   59                     DB   lsb(editDef_)   ;\#6    ( char -- )   edit command
07D8   B3                     DB   lsb(aDup_)   ;\#7    ( adr -- )    dupe (used in asm tests)
07D9                UTIL_:       
07D9                UTIL:        ;= 13
07D9   03                     INC   BC   
07DA   0A                     LD   A,(BC)   
07DB   D6 30                  SUB   "0"   
07DD   2E D1                  LD   L,lsb(utilTable)   ; H already contains msb(page6)
07DF   85                     ADD   A,L   
07E0   6F                     LD   L,A   
07E1   6E                     LD   L,(HL)   ; H already contains msb(page6)
07E2   E9                     JP   (HL)   
07E3                PRINTSTK_:      
07E3                             ; **************************************************************************
07E3                             ; Page 6 primitive routines continued  (page 7)
07E3                             ; **************************************************************************
07E3                             ; falls through to following page
07E3                PRINTSTK:      ;=40
07E3                             ; SCAN: \a@2- \#3 1- ("@ \b@ \(,)(.) 2-) '
07E3   CD FC 03               CALL   ENTER   
07E6   60 3D 3E 20 60 5C 61 40 32 2D 5C 23 33 20 31 2D 28 22 40 5C 62 40 28 2C 29 28 2E 29 32 2D 29 27 5C 24 00 .CSTR   "`=> `\\a@2-\\#3 1-(",$22,"@\\b@(,)(.)2-)'\\$"   
0809   FD E9                  JP   (IY)   
080B                STRDEF:      ;= 21
080B   ED 5B 8E 1C            LD   DE,(vHeapPtr)   ; HL = heap ptr
080F   D5                     PUSH   DE   ; save start of string
0810   03                     INC   BC   ; point to next char
0811   18 03                  JR   strDef2   
0813                STRDEF1:      
0813   12                     LD   (DE),A   
0814   13                     INC   DE   ; increase count
0815   03                     INC   BC   ; point to next char
0816                STRDEF2:      
0816   0A                     LD   A,(BC)   
0817   FE 60                  CP   "`"   ; ` is the string terminator
0819   20 F8                  JR   NZ,strDef1   
081B   AF                     XOR   A   ; write null to terminate string
081C   12                     LD   (DE),A   
081D   13                     INC   DE   
081E   C3 4A 06               JP   def3   
0821                             ;*******************************************************************
0821                             ; Page 5 primitive routines continued
0821                             ;*******************************************************************
0821                             ; ********************************************************************
0821                             ; 16-bit multiply
0821                MUL:         ;=19
0821   D1                     POP   DE   ; get first value
0822   E1                     POP   HL   
0823   C5                     PUSH   BC   ; Preserve the IP
0824   44                     LD   B,H   ; BC = 2nd value
0825   4D                     LD   C,L   
0826   21 00 00               LD   HL,0   
0829   3E 10                  LD   A,16   
082B                MUL2:        
082B   29                     ADD   HL,HL   
082C   CB 13                  RL   E   
082E   CB 12                  RL   D   
0830   30 04                  JR   NC,$+6   
0832   09                     ADD   HL,BC   
0833   30 01                  JR   NC,$+3   
0835   13                     INC   DE   
0836   3D                     DEC   A   
0837   20 F2                  JR   NZ,mul2   
0839   C1                     POP   BC   ; Restore the IP
083A   E5                     PUSH   HL   ; Put the product on the stack - stack bug fixed 2/12/21
083B   FD E9                  JP   (IY)   
083D                             ; ********************************************************************************
083D                             ; Number Handling Routine - converts numeric ascii string to a 16-bit number in HL
083D                             ; Read the first character.
083D                             ;			
083D                             ; Number characters ($30 to $39) are converted to digits by subtracting $30
083D                             ; and then added into the L register. (HL forms a 16-bit accumulator)
083D                             ; Fetch the next character, if it is a number, multiply contents of HL by 10
083D                             ; and then add in the next digit. Repeat this until a non-number character is
083D                             ; detected. Add in the final digit so that HL contains the converted number.
083D                             ; Push HL onto the stack and proceed to the dispatch routine.
083D                             ; ********************************************************************************
083D                NUM:         ;=23
083D   21 00 00               LD   HL,$0000   ;     Clear HL to accept the number
0840   0A                     LD   A,(BC)   ;     Get the character which is a numeral
0841                NUM1:        ; corrected KB 24/11/21
0841   D6 30                  SUB   $30   ;       Form decimal digit
0843   85                     ADD   A,L   ;       Add into bottom of HL
0844   6F                     LD   L,A   ; 
0845   3E 00                  LD   A,00   ;       Clear A
0847   8C                     ADC   A,H   ; Add with carry H-reg
0848   67                     LD   H,A   ; Put result in H-reg
0849   03                     INC   BC   ;       Increment IP
084A   0A                     LD   A,(BC)   ;       and get the next character
084B   FE 30                  CP   $30   ;       Less than $30
084D   38 0C                  JR   C,num2   ;       Not a number / end of number
084F   FE 3A                  CP   $3A   ;       Greater or equal to $3A
0851   30 08                  JR   NC,num2   ;       Not a number / end of number
0853                             ; Multiply digit(s) in HL by 10
0853   29                     ADD   HL,HL   ;        2X
0854   5D                     LD   E,L   ;        LD DE,HL
0855   54                     LD   D,H   ; 
0856   29                     ADD   HL,HL   ;        4X
0857   29                     ADD   HL,HL   ;        8X
0858   19                     ADD   HL,DE   ;        2X  + 8X  = 10X
0859                             ; 52t cycles
0859   18 E6                  JR   num1   
085B                NUM2:        
085B   0B                     DEC   BC   
085C   E5                     PUSH   HL   ; Put the number on the stack
085D   FD E9                  JP   (IY)   ; and process the next character
085F                HEX:         ;=26
085F   21 00 00               LD   HL,0   ; Clear HL to accept the number
0862                HEX1:        
0862   03                     INC   BC   
0863   0A                     LD   A,(BC)   ; Get the character which is a numeral
0864   CB 77                  BIT   6,A   ; is it uppercase alpha?
0866   28 02                  JR   Z,hex2   ; no a decimal
0868   D6 07                  SUB   7   ; sub 7  to make $A - $F
086A                HEX2:        
086A   D6 30                  SUB   $30   ; Form decimal digit
086C   DA 5B 08               JP   C,num2   
086F   FE 10                  CP   $0F+1   
0871   D2 5B 08               JP   NC,num2   
0874   29                     ADD   HL,HL   ; 2X ; Multiply digit(s) in HL by 16
0875   29                     ADD   HL,HL   ; 4X
0876   29                     ADD   HL,HL   ; 8X
0877   29                     ADD   HL,HL   ; 16X
0878   85                     ADD   A,L   ; Add into bottom of HL
0879   6F                     LD   L,A   ; 
087A   18 E6                  JR   hex1   
087C                             ;*******************************************************************
087C                             ; Subroutines
087C                             ;*******************************************************************
087C                PROMPT:      ;=9
087C   CD 05 04               CALL   printStr   
087F   0D 0A 3E 20 00         .CSTR   "\r\n> "   
0884   C9                     RET      
0885                PUTSTR0:      
0885   CD 85 00               CALL   putchar   
0888   23                     INC   HL   
0889                PUTSTR:      
0889   7E                     LD   A,(HL)   
088A   B7                     OR   A   
088B   20 F8                  JR   NZ,putStr0   
088D   C9                     RET      
088E                RPUSH:       ;=11
088E   DD 2B                  DEC   IX   
0890   DD 74 00               LD   (IX+0),H   
0893   DD 2B                  DEC   IX   
0895   DD 75 00               LD   (IX+0),L   
0898   C9                     RET      
0899                RPOP:        ;=11
0899   DD 6E 00               LD   L,(IX+0)   
089C   DD 23                  INC   IX   
089E   DD 66 00               LD   H,(IX+0)   
08A1   DD 23                  INC   IX   
08A3                RPOP2:       
08A3   C9                     RET      
08A4                EDITDEF:      ;=50 lookup up def based on number
08A4   E1                     POP   HL   ; pop ret address
08A5   E3                     EX   (SP),HL   ; swap with TOS
08A6   7D                     LD   A,L   
08A7   08                     EX   AF,AF'   
08A8   7D                     LD   A,L   
08A9   CD 0C 04               CALL   lookupRef   
08AC   5E                     LD   E,(HL)   
08AD   23                     INC   HL   
08AE   56                     LD   D,(HL)   
08AF   7A                     LD   A,D   
08B0   B3                     OR   E   
08B1   21 00 18               LD   HL,TIB   
08B4   28 14                  JR   Z,editDef3   
08B6   3E 3A                  LD   A,":"   
08B8   CD D4 08               CALL   writeChar   
08BB   08                     EX   AF,AF'   
08BC   CD D4 08               CALL   writeChar   
08BF   18 01                  JR   editDef2   
08C1                EDITDEF1:      
08C1   13                     INC   DE   
08C2                EDITDEF2:      
08C2   1A                     LD   A,(DE)   
08C3   CD D4 08               CALL   writeChar   
08C6   FE 3B                  CP   ";"   
08C8   20 F7                  JR   NZ,editDef1   
08CA                EDITDEF3:      
08CA   11 00 18               LD   DE,TIB   
08CD   B7                     OR   A   
08CE   ED 52                  SBC   HL,DE   
08D0   22 84 1C               LD   (vTIBPtr),HL   
08D3   C9                     RET      
08D4                WRITECHAR:      ;=5
08D4   77                     LD   (HL),A   
08D5   23                     INC   HL   
08D6   C3 85 00               JP   putchar   
08D9                CRLF:        ;=7
08D9   CD 05 04               CALL   printStr   
08DC   0D 0A 00               .CSTR   "\r\n"   
08DF   C9                     RET      
1800                          .ORG   RAMSTART   
1800                TIB:      DS   TIBSIZE   
1900                          DS   RSIZE   
1980                RSTACK:      
1980                          DS   DSIZE   
1A00                DSTACK:      
1A00                STACK:       
1A00                          DS   LSIZE   
1A80                LSTACK:      
1A80                          ALIGN   $100   
1B00                OPCODES:      
1B00                          DS   $80   
1B80                CTRLCODES:      
1B80                ALTCODES:      
1B80                          DS   $80   
1C00                          ALIGN   $100   
1C00                MINTVARS:      
1C00                          DS   $30   
1C30                VLOOPSP:   DS   2   ; 
1C32                VBYTEMODE:   DS   2   ; 
1C34                TBPTR:    DS   2   ; reserved for tests
1C36                RST08:    DS   2   
1C38                RST10:    DS   2   
1C3A                RST18:    DS   2   
1C3C                RST20:    DS   2   
1C3E                RST28:    DS   2   
1C40                RST30:    DS   2   ; 
1C42                BAUD:     DS   2   ; 
1C44                INTVEC:   DS   2   ; 
1C46                NMIVEC:   DS   2   ; 
1C48                GETCVEC:   DS   2   ; 
1C4A                PUTCVEC:   DS   2   ; 
1C4C                          DS   26*2   
1C80                ALTVARS:      
1C80                VS0:      DS   2   ; a
1C82                VBASE16:   DS   2   ; b
1C84                VTIBPTR:   DS   2   ; c
1C86                VNS:      DS   2   ; d
1C88                VLASTDEF:   DS   2   ; e
1C8A                          DS   2   ; f
1C8C                VALTPAGE:   DS   2   ; g
1C8E                VHEAPPTR:   DS   2   ; h
1C90                          DS   2   ; i
1C92                          DS   2   ; j
1C94                          DS   2   ; k
1C96                          DS   2   ; l
1C98                          DS   2   ; m
1C9A                          DS   2   ; n
1C9C                          DS   2   ; o
1C9E                          DS   2   ; p
1CA0                          DS   2   ; q
1CA2                          DS   2   ; r
1CA4                          DS   2   ; s
1CA6                          DS   2   ; t
1CA8                          DS   2   ; u
1CAA                          DS   2   ; v
1CAC                          DS   2   ; w
1CAE                          DS   2   ; x
1CB0                          DS   2   ; y
1CB2                          DS   2   ; z
1CB4                             ; ****************************************************************
1CB4                             ; NS Table - Each space holds 26 user commands, 26 user vars, 12 bytes free
1CB4                             ; ****************************************************************
1CB4                          ALIGN   $40   
1CC0                MINTDATA:   DS   mintDataSize   
1D28                HEAP:        
1D28                             ; 
4000                          .ORG   $4000   
4000                             ; 
4000                TESTSSTART:      
4000                             ; 
4000                             ; CALL printStr
4000                             ; .cstr "Done!!\r\n"
4000                             ; HALT
4000                             ; 
4000                          ;*Macro unroll:  test "1", 1
4000   CD FC 03               CALL   enter   
4003   31 00                  .CSTR   "1"   
4005                          ;*Macro unroll:  expect "1",1
4005   E1                     POP   HL   
4006   E5                     PUSH   HL   
4007   11 01 00               LD   DE,1   
400A   B7                     OR   A   
400B   ED 52                  SBC   HL,DE   
400D   7D                     LD   A,L   
400E   B4                     OR   H   
400F   28 2A                  JR   Z,expectM_0_2032S29   
4011   CD 05 04               CALL   printStr   
4014   31 0D 0A 41 63 74 75 61 6C 3A 20 00 .CSTR   "1","\r\nActual: "   
4020   CD 2A 04               CALL   printdec   
4023   CD 05 04               CALL   printStr   
4026   0D 0A 45 78 70 65 63 74 65 64 3A 20 00 .CSTR   "\r\nExpected: "   
4033   21 01 00               LD   HL,1   
4036   CD 2A 04               CALL   printdec   
4039   76                     HALT      
403A   00                     .CSTR      
403B                EXPECTM_0_2032S29:      
403B   E1                     POP   HL   
403C                          ;*Macro unroll:  test "1", 1
403C   CD FC 03               CALL   enter   
403F   31 00                  .CSTR   "1"   
4041                          ;*Macro unroll:  expect "1",1
4041   E1                     POP   HL   
4042   E5                     PUSH   HL   
4043   11 01 00               LD   DE,1   
4046   B7                     OR   A   
4047   ED 52                  SBC   HL,DE   
4049   7D                     LD   A,L   
404A   B4                     OR   H   
404B   28 2A                  JR   Z,expectM_0_2033S29   
404D   CD 05 04               CALL   printStr   
4050   31 0D 0A 41 63 74 75 61 6C 3A 20 00 .CSTR   "1","\r\nActual: "   
405C   CD 2A 04               CALL   printdec   
405F   CD 05 04               CALL   printStr   
4062   0D 0A 45 78 70 65 63 74 65 64 3A 20 00 .CSTR   "\r\nExpected: "   
406F   21 01 00               LD   HL,1   
4072   CD 2A 04               CALL   printdec   
4075   76                     HALT      
4076   00                     .CSTR      
4077                EXPECTM_0_2033S29:      
4077   E1                     POP   HL   
4078                          ;*Macro unroll:  test "0", 0
4078   CD FC 03               CALL   enter   
407B   30 00                  .CSTR   "0"   
407D                          ;*Macro unroll:  expect "0",0
407D   E1                     POP   HL   
407E   E5                     PUSH   HL   
407F   11 00 00               LD   DE,0   
4082   B7                     OR   A   
4083   ED 52                  SBC   HL,DE   
4085   7D                     LD   A,L   
4086   B4                     OR   H   
4087   28 2A                  JR   Z,expectM_0_2034S29   
4089   CD 05 04               CALL   printStr   
408C   30 0D 0A 41 63 74 75 61 6C 3A 20 00 .CSTR   "0","\r\nActual: "   
4098   CD 2A 04               CALL   printdec   
409B   CD 05 04               CALL   printStr   
409E   0D 0A 45 78 70 65 63 74 65 64 3A 20 00 .CSTR   "\r\nExpected: "   
40AB   21 00 00               LD   HL,0   
40AE   CD 2A 04               CALL   printdec   
40B1   76                     HALT      
40B2   00                     .CSTR      
40B3                EXPECTM_0_2034S29:      
40B3   E1                     POP   HL   
40B4                          ;*Macro unroll:  test "10", 10
40B4   CD FC 03               CALL   enter   
40B7   31 30 00               .CSTR   "10"   
40BA                          ;*Macro unroll:  expect "10",10
40BA   E1                     POP   HL   
40BB   E5                     PUSH   HL   
40BC   11 0A 00               LD   DE,10   
40BF   B7                     OR   A   
40C0   ED 52                  SBC   HL,DE   
40C2   7D                     LD   A,L   
40C3   B4                     OR   H   
40C4   28 2B                  JR   Z,expectM_0_2035S29   
40C6   CD 05 04               CALL   printStr   
40C9   31 30 0D 0A 41 63 74 75 61 6C 3A 20 00 .CSTR   "10","\r\nActual: "   
40D6   CD 2A 04               CALL   printdec   
40D9   CD 05 04               CALL   printStr   
40DC   0D 0A 45 78 70 65 63 74 65 64 3A 20 00 .CSTR   "\r\nExpected: "   
40E9   21 0A 00               LD   HL,10   
40EC   CD 2A 04               CALL   printdec   
40EF   76                     HALT      
40F0   00                     .CSTR      
40F1                EXPECTM_0_2035S29:      
40F1   E1                     POP   HL   
40F2                          ;*Macro unroll:  test "#10", $10
40F2   CD FC 03               CALL   enter   
40F5   23 31 30 00            .CSTR   "#10"   
40F9                          ;*Macro unroll:  expect "#10",$10
40F9   E1                     POP   HL   
40FA   E5                     PUSH   HL   
40FB   11 10 00               LD   DE,$10   
40FE   B7                     OR   A   
40FF   ED 52                  SBC   HL,DE   
4101   7D                     LD   A,L   
4102   B4                     OR   H   
4103   28 2C                  JR   Z,expectM_0_2036S29   
4105   CD 05 04               CALL   printStr   
4108   23 31 30 0D 0A 41 63 74 75 61 6C 3A 20 00 .CSTR   "#10","\r\nActual: "   
4116   CD 2A 04               CALL   printdec   
4119   CD 05 04               CALL   printStr   
411C   0D 0A 45 78 70 65 63 74 65 64 3A 20 00 .CSTR   "\r\nExpected: "   
4129   21 10 00               LD   HL,$10   
412C   CD 2A 04               CALL   printdec   
412F   76                     HALT      
4130   00                     .CSTR      
4131                EXPECTM_0_2036S29:      
4131   E1                     POP   HL   
4132                          ;*Macro unroll:  test "#FF", $FF
4132   CD FC 03               CALL   enter   
4135   23 46 46 00            .CSTR   "#FF"   
4139                          ;*Macro unroll:  expect "#FF",$FF
4139   E1                     POP   HL   
413A   E5                     PUSH   HL   
413B   11 FF 00               LD   DE,$FF   
413E   B7                     OR   A   
413F   ED 52                  SBC   HL,DE   
4141   7D                     LD   A,L   
4142   B4                     OR   H   
4143   28 2C                  JR   Z,expectM_0_2037S29   
4145   CD 05 04               CALL   printStr   
4148   23 46 46 0D 0A 41 63 74 75 61 6C 3A 20 00 .CSTR   "#FF","\r\nActual: "   
4156   CD 2A 04               CALL   printdec   
4159   CD 05 04               CALL   printStr   
415C   0D 0A 45 78 70 65 63 74 65 64 3A 20 00 .CSTR   "\r\nExpected: "   
4169   21 FF 00               LD   HL,$FF   
416C   CD 2A 04               CALL   printdec   
416F   76                     HALT      
4170   00                     .CSTR      
4171                EXPECTM_0_2037S29:      
4171   E1                     POP   HL   
4172                          ;*Macro unroll:  test "2 3=", 0
4172   CD FC 03               CALL   enter   
4175   32 20 33 3D 00         .CSTR   "2 3="   
417A                          ;*Macro unroll:  expect "2 3=",0
417A   E1                     POP   HL   
417B   E5                     PUSH   HL   
417C   11 00 00               LD   DE,0   
417F   B7                     OR   A   
4180   ED 52                  SBC   HL,DE   
4182   7D                     LD   A,L   
4183   B4                     OR   H   
4184   28 2D                  JR   Z,expectM_0_2038S29   
4186   CD 05 04               CALL   printStr   
4189   32 20 33 3D 0D 0A 41 63 74 75 61 6C 3A 20 00 .CSTR   "2 3=","\r\nActual: "   
4198   CD 2A 04               CALL   printdec   
419B   CD 05 04               CALL   printStr   
419E   0D 0A 45 78 70 65 63 74 65 64 3A 20 00 .CSTR   "\r\nExpected: "   
41AB   21 00 00               LD   HL,0   
41AE   CD 2A 04               CALL   printdec   
41B1   76                     HALT      
41B2   00                     .CSTR      
41B3                EXPECTM_0_2038S29:      
41B3   E1                     POP   HL   
41B4                          ;*Macro unroll:  test "3 3=", 1
41B4   CD FC 03               CALL   enter   
41B7   33 20 33 3D 00         .CSTR   "3 3="   
41BC                          ;*Macro unroll:  expect "3 3=",1
41BC   E1                     POP   HL   
41BD   E5                     PUSH   HL   
41BE   11 01 00               LD   DE,1   
41C1   B7                     OR   A   
41C2   ED 52                  SBC   HL,DE   
41C4   7D                     LD   A,L   
41C5   B4                     OR   H   
41C6   28 2D                  JR   Z,expectM_0_2039S29   
41C8   CD 05 04               CALL   printStr   
41CB   33 20 33 3D 0D 0A 41 63 74 75 61 6C 3A 20 00 .CSTR   "3 3=","\r\nActual: "   
41DA   CD 2A 04               CALL   printdec   
41DD   CD 05 04               CALL   printStr   
41E0   0D 0A 45 78 70 65 63 74 65 64 3A 20 00 .CSTR   "\r\nExpected: "   
41ED   21 01 00               LD   HL,1   
41F0   CD 2A 04               CALL   printdec   
41F3   76                     HALT      
41F4   00                     .CSTR      
41F5                EXPECTM_0_2039S29:      
41F5   E1                     POP   HL   
41F6                          ;*Macro unroll:  test "2 3<", 1
41F6   CD FC 03               CALL   enter   
41F9   32 20 33 3C 00         .CSTR   "2 3<"   
41FE                          ;*Macro unroll:  expect "2 3<",1
41FE   E1                     POP   HL   
41FF   E5                     PUSH   HL   
4200   11 01 00               LD   DE,1   
4203   B7                     OR   A   
4204   ED 52                  SBC   HL,DE   
4206   7D                     LD   A,L   
4207   B4                     OR   H   
4208   28 2D                  JR   Z,expectM_0_2040S29   
420A   CD 05 04               CALL   printStr   
420D   32 20 33 3C 0D 0A 41 63 74 75 61 6C 3A 20 00 .CSTR   "2 3<","\r\nActual: "   
421C   CD 2A 04               CALL   printdec   
421F   CD 05 04               CALL   printStr   
4222   0D 0A 45 78 70 65 63 74 65 64 3A 20 00 .CSTR   "\r\nExpected: "   
422F   21 01 00               LD   HL,1   
4232   CD 2A 04               CALL   printdec   
4235   76                     HALT      
4236   00                     .CSTR      
4237                EXPECTM_0_2040S29:      
4237   E1                     POP   HL   
4238                          ;*Macro unroll:  test "3 3<", 0
4238   CD FC 03               CALL   enter   
423B   33 20 33 3C 00         .CSTR   "3 3<"   
4240                          ;*Macro unroll:  expect "3 3<",0
4240   E1                     POP   HL   
4241   E5                     PUSH   HL   
4242   11 00 00               LD   DE,0   
4245   B7                     OR   A   
4246   ED 52                  SBC   HL,DE   
4248   7D                     LD   A,L   
4249   B4                     OR   H   
424A   28 2D                  JR   Z,expectM_0_2041S29   
424C   CD 05 04               CALL   printStr   
424F   33 20 33 3C 0D 0A 41 63 74 75 61 6C 3A 20 00 .CSTR   "3 3<","\r\nActual: "   
425E   CD 2A 04               CALL   printdec   
4261   CD 05 04               CALL   printStr   
4264   0D 0A 45 78 70 65 63 74 65 64 3A 20 00 .CSTR   "\r\nExpected: "   
4271   21 00 00               LD   HL,0   
4274   CD 2A 04               CALL   printdec   
4277   76                     HALT      
4278   00                     .CSTR      
4279                EXPECTM_0_2041S29:      
4279   E1                     POP   HL   
427A                          ;*Macro unroll:  test "3 3>", 0
427A   CD FC 03               CALL   enter   
427D   33 20 33 3E 00         .CSTR   "3 3>"   
4282                          ;*Macro unroll:  expect "3 3>",0
4282   E1                     POP   HL   
4283   E5                     PUSH   HL   
4284   11 00 00               LD   DE,0   
4287   B7                     OR   A   
4288   ED 52                  SBC   HL,DE   
428A   7D                     LD   A,L   
428B   B4                     OR   H   
428C   28 2D                  JR   Z,expectM_0_2042S29   
428E   CD 05 04               CALL   printStr   
4291   33 20 33 3E 0D 0A 41 63 74 75 61 6C 3A 20 00 .CSTR   "3 3>","\r\nActual: "   
42A0   CD 2A 04               CALL   printdec   
42A3   CD 05 04               CALL   printStr   
42A6   0D 0A 45 78 70 65 63 74 65 64 3A 20 00 .CSTR   "\r\nExpected: "   
42B3   21 00 00               LD   HL,0   
42B6   CD 2A 04               CALL   printdec   
42B9   76                     HALT      
42BA   00                     .CSTR      
42BB                EXPECTM_0_2042S29:      
42BB   E1                     POP   HL   
42BC                          ;*Macro unroll:  test "4 3>", 1
42BC   CD FC 03               CALL   enter   
42BF   34 20 33 3E 00         .CSTR   "4 3>"   
42C4                          ;*Macro unroll:  expect "4 3>",1
42C4   E1                     POP   HL   
42C5   E5                     PUSH   HL   
42C6   11 01 00               LD   DE,1   
42C9   B7                     OR   A   
42CA   ED 52                  SBC   HL,DE   
42CC   7D                     LD   A,L   
42CD   B4                     OR   H   
42CE   28 2D                  JR   Z,expectM_0_2043S29   
42D0   CD 05 04               CALL   printStr   
42D3   34 20 33 3E 0D 0A 41 63 74 75 61 6C 3A 20 00 .CSTR   "4 3>","\r\nActual: "   
42E2   CD 2A 04               CALL   printdec   
42E5   CD 05 04               CALL   printStr   
42E8   0D 0A 45 78 70 65 63 74 65 64 3A 20 00 .CSTR   "\r\nExpected: "   
42F5   21 01 00               LD   HL,1   
42F8   CD 2A 04               CALL   printdec   
42FB   76                     HALT      
42FC   00                     .CSTR      
42FD                EXPECTM_0_2043S29:      
42FD   E1                     POP   HL   
42FE                          ;*Macro unroll:  test "1 2+", 3
42FE   CD FC 03               CALL   enter   
4301   31 20 32 2B 00         .CSTR   "1 2+"   
4306                          ;*Macro unroll:  expect "1 2+",3
4306   E1                     POP   HL   
4307   E5                     PUSH   HL   
4308   11 03 00               LD   DE,3   
430B   B7                     OR   A   
430C   ED 52                  SBC   HL,DE   
430E   7D                     LD   A,L   
430F   B4                     OR   H   
4310   28 2D                  JR   Z,expectM_0_2044S29   
4312   CD 05 04               CALL   printStr   
4315   31 20 32 2B 0D 0A 41 63 74 75 61 6C 3A 20 00 .CSTR   "1 2+","\r\nActual: "   
4324   CD 2A 04               CALL   printdec   
4327   CD 05 04               CALL   printStr   
432A   0D 0A 45 78 70 65 63 74 65 64 3A 20 00 .CSTR   "\r\nExpected: "   
4337   21 03 00               LD   HL,3   
433A   CD 2A 04               CALL   printdec   
433D   76                     HALT      
433E   00                     .CSTR      
433F                EXPECTM_0_2044S29:      
433F   E1                     POP   HL   
4340                          ;*Macro unroll:  test "123 456+", 123+456
4340   CD FC 03               CALL   enter   
4343   31 32 33 20 34 35 36 2B 00 .CSTR   "123 456+"   
434C                          ;*Macro unroll:  expect "123 456+",123+456
434C   E1                     POP   HL   
434D   E5                     PUSH   HL   
434E   11 43 02               LD   DE,123+456   
4351   B7                     OR   A   
4352   ED 52                  SBC   HL,DE   
4354   7D                     LD   A,L   
4355   B4                     OR   H   
4356   28 31                  JR   Z,expectM_0_2045S29   
4358   CD 05 04               CALL   printStr   
435B   31 32 33 20 34 35 36 2B 0D 0A 41 63 74 75 61 6C 3A 20 00 .CSTR   "123 456+","\r\nActual: "   
436E   CD 2A 04               CALL   printdec   
4371   CD 05 04               CALL   printStr   
4374   0D 0A 45 78 70 65 63 74 65 64 3A 20 00 .CSTR   "\r\nExpected: "   
4381   21 43 02               LD   HL,123+456   
4384   CD 2A 04               CALL   printdec   
4387   76                     HALT      
4388   00                     .CSTR      
4389                EXPECTM_0_2045S29:      
4389   E1                     POP   HL   
438A                          ;*Macro unroll:  test "64 128+", 64+128
438A   CD FC 03               CALL   enter   
438D   36 34 20 31 32 38 2B 00 .CSTR   "64 128+"   
4395                          ;*Macro unroll:  expect "64 128+",64+128
4395   E1                     POP   HL   
4396   E5                     PUSH   HL   
4397   11 C0 00               LD   DE,64+128   
439A   B7                     OR   A   
439B   ED 52                  SBC   HL,DE   
439D   7D                     LD   A,L   
439E   B4                     OR   H   
439F   28 30                  JR   Z,expectM_0_2046S29   
43A1   CD 05 04               CALL   printStr   
43A4   36 34 20 31 32 38 2B 0D 0A 41 63 74 75 61 6C 3A 20 00 .CSTR   "64 128+","\r\nActual: "   
43B6   CD 2A 04               CALL   printdec   
43B9   CD 05 04               CALL   printStr   
43BC   0D 0A 45 78 70 65 63 74 65 64 3A 20 00 .CSTR   "\r\nExpected: "   
43C9   21 C0 00               LD   HL,64+128   
43CC   CD 2A 04               CALL   printdec   
43CF   76                     HALT      
43D0   00                     .CSTR      
43D1                EXPECTM_0_2046S29:      
43D1   E1                     POP   HL   
43D2                          ;*Macro unroll:  test "5 3-", 2
43D2   CD FC 03               CALL   enter   
43D5   35 20 33 2D 00         .CSTR   "5 3-"   
43DA                          ;*Macro unroll:  expect "5 3-",2
43DA   E1                     POP   HL   
43DB   E5                     PUSH   HL   
43DC   11 02 00               LD   DE,2   
43DF   B7                     OR   A   
43E0   ED 52                  SBC   HL,DE   
43E2   7D                     LD   A,L   
43E3   B4                     OR   H   
43E4   28 2D                  JR   Z,expectM_0_2047S29   
43E6   CD 05 04               CALL   printStr   
43E9   35 20 33 2D 0D 0A 41 63 74 75 61 6C 3A 20 00 .CSTR   "5 3-","\r\nActual: "   
43F8   CD 2A 04               CALL   printdec   
43FB   CD 05 04               CALL   printStr   
43FE   0D 0A 45 78 70 65 63 74 65 64 3A 20 00 .CSTR   "\r\nExpected: "   
440B   21 02 00               LD   HL,2   
440E   CD 2A 04               CALL   printdec   
4411   76                     HALT      
4412   00                     .CSTR      
4413                EXPECTM_0_2047S29:      
4413   E1                     POP   HL   
4414                          ;*Macro unroll:  test "1_ 2+",1
4414   CD FC 03               CALL   enter   
4417   31 5F 20 32 2B 00      .CSTR   "1_ 2+"   
441D                          ;*Macro unroll:  expect "1_ 2+",1
441D   E1                     POP   HL   
441E   E5                     PUSH   HL   
441F   11 01 00               LD   DE,1   
4422   B7                     OR   A   
4423   ED 52                  SBC   HL,DE   
4425   7D                     LD   A,L   
4426   B4                     OR   H   
4427   28 2E                  JR   Z,expectM_0_2048S29   
4429   CD 05 04               CALL   printStr   
442C   31 5F 20 32 2B 0D 0A 41 63 74 75 61 6C 3A 20 00 .CSTR   "1_ 2+","\r\nActual: "   
443C   CD 2A 04               CALL   printdec   
443F   CD 05 04               CALL   printStr   
4442   0D 0A 45 78 70 65 63 74 65 64 3A 20 00 .CSTR   "\r\nExpected: "   
444F   21 01 00               LD   HL,1   
4452   CD 2A 04               CALL   printdec   
4455   76                     HALT      
4456   00                     .CSTR      
4457                EXPECTM_0_2048S29:      
4457   E1                     POP   HL   
4458                          ;*Macro unroll:  test "1_1+",0
4458   CD FC 03               CALL   enter   
445B   31 5F 31 2B 00         .CSTR   "1_1+"   
4460                          ;*Macro unroll:  expect "1_1+",0
4460   E1                     POP   HL   
4461   E5                     PUSH   HL   
4462   11 00 00               LD   DE,0   
4465   B7                     OR   A   
4466   ED 52                  SBC   HL,DE   
4468   7D                     LD   A,L   
4469   B4                     OR   H   
446A   28 2D                  JR   Z,expectM_0_2049S29   
446C   CD 05 04               CALL   printStr   
446F   31 5F 31 2B 0D 0A 41 63 74 75 61 6C 3A 20 00 .CSTR   "1_1+","\r\nActual: "   
447E   CD 2A 04               CALL   printdec   
4481   CD 05 04               CALL   printStr   
4484   0D 0A 45 78 70 65 63 74 65 64 3A 20 00 .CSTR   "\r\nExpected: "   
4491   21 00 00               LD   HL,0   
4494   CD 2A 04               CALL   printdec   
4497   76                     HALT      
4498   00                     .CSTR      
4499                EXPECTM_0_2049S29:      
4499   E1                     POP   HL   
449A                          ;*Macro unroll:  test "3 5&", 1
449A   CD FC 03               CALL   enter   
449D   33 20 35 26 00         .CSTR   "3 5&"   
44A2                          ;*Macro unroll:  expect "3 5&",1
44A2   E1                     POP   HL   
44A3   E5                     PUSH   HL   
44A4   11 01 00               LD   DE,1   
44A7   B7                     OR   A   
44A8   ED 52                  SBC   HL,DE   
44AA   7D                     LD   A,L   
44AB   B4                     OR   H   
44AC   28 2D                  JR   Z,expectM_0_2050S29   
44AE   CD 05 04               CALL   printStr   
44B1   33 20 35 26 0D 0A 41 63 74 75 61 6C 3A 20 00 .CSTR   "3 5&","\r\nActual: "   
44C0   CD 2A 04               CALL   printdec   
44C3   CD 05 04               CALL   printStr   
44C6   0D 0A 45 78 70 65 63 74 65 64 3A 20 00 .CSTR   "\r\nExpected: "   
44D3   21 01 00               LD   HL,1   
44D6   CD 2A 04               CALL   printdec   
44D9   76                     HALT      
44DA   00                     .CSTR      
44DB                EXPECTM_0_2050S29:      
44DB   E1                     POP   HL   
44DC                          ;*Macro unroll:  test "3 5|", 7
44DC   CD FC 03               CALL   enter   
44DF   33 20 35 7C 00         .CSTR   "3 5|"   
44E4                          ;*Macro unroll:  expect "3 5|",7
44E4   E1                     POP   HL   
44E5   E5                     PUSH   HL   
44E6   11 07 00               LD   DE,7   
44E9   B7                     OR   A   
44EA   ED 52                  SBC   HL,DE   
44EC   7D                     LD   A,L   
44ED   B4                     OR   H   
44EE   28 2D                  JR   Z,expectM_0_2051S29   
44F0   CD 05 04               CALL   printStr   
44F3   33 20 35 7C 0D 0A 41 63 74 75 61 6C 3A 20 00 .CSTR   "3 5|","\r\nActual: "   
4502   CD 2A 04               CALL   printdec   
4505   CD 05 04               CALL   printStr   
4508   0D 0A 45 78 70 65 63 74 65 64 3A 20 00 .CSTR   "\r\nExpected: "   
4515   21 07 00               LD   HL,7   
4518   CD 2A 04               CALL   printdec   
451B   76                     HALT      
451C   00                     .CSTR      
451D                EXPECTM_0_2051S29:      
451D   E1                     POP   HL   
451E                          ;*Macro unroll:  test "1{", 2
451E   CD FC 03               CALL   enter   
4521   31 7B 00               .CSTR   "1{"   
4524                          ;*Macro unroll:  expect "1{",2
4524   E1                     POP   HL   
4525   E5                     PUSH   HL   
4526   11 02 00               LD   DE,2   
4529   B7                     OR   A   
452A   ED 52                  SBC   HL,DE   
452C   7D                     LD   A,L   
452D   B4                     OR   H   
452E   28 2B                  JR   Z,expectM_0_2052S29   
4530   CD 05 04               CALL   printStr   
4533   31 7B 0D 0A 41 63 74 75 61 6C 3A 20 00 .CSTR   "1{","\r\nActual: "   
4540   CD 2A 04               CALL   printdec   
4543   CD 05 04               CALL   printStr   
4546   0D 0A 45 78 70 65 63 74 65 64 3A 20 00 .CSTR   "\r\nExpected: "   
4553   21 02 00               LD   HL,2   
4556   CD 2A 04               CALL   printdec   
4559   76                     HALT      
455A   00                     .CSTR      
455B                EXPECTM_0_2052S29:      
455B   E1                     POP   HL   
455C                          ;*Macro unroll:  test "1}", 0
455C   CD FC 03               CALL   enter   
455F   31 7D 00               .CSTR   "1}"   
4562                          ;*Macro unroll:  expect "1}",0
4562   E1                     POP   HL   
4563   E5                     PUSH   HL   
4564   11 00 00               LD   DE,0   
4567   B7                     OR   A   
4568   ED 52                  SBC   HL,DE   
456A   7D                     LD   A,L   
456B   B4                     OR   H   
456C   28 2B                  JR   Z,expectM_0_2053S29   
456E   CD 05 04               CALL   printStr   
4571   31 7D 0D 0A 41 63 74 75 61 6C 3A 20 00 .CSTR   "1}","\r\nActual: "   
457E   CD 2A 04               CALL   printdec   
4581   CD 05 04               CALL   printStr   
4584   0D 0A 45 78 70 65 63 74 65 64 3A 20 00 .CSTR   "\r\nExpected: "   
4591   21 00 00               LD   HL,0   
4594   CD 2A 04               CALL   printdec   
4597   76                     HALT      
4598   00                     .CSTR      
4599                EXPECTM_0_2053S29:      
4599   E1                     POP   HL   
459A                          ;*Macro unroll:  test "2}", 1
459A   CD FC 03               CALL   enter   
459D   32 7D 00               .CSTR   "2}"   
45A0                          ;*Macro unroll:  expect "2}",1
45A0   E1                     POP   HL   
45A1   E5                     PUSH   HL   
45A2   11 01 00               LD   DE,1   
45A5   B7                     OR   A   
45A6   ED 52                  SBC   HL,DE   
45A8   7D                     LD   A,L   
45A9   B4                     OR   H   
45AA   28 2B                  JR   Z,expectM_0_2054S29   
45AC   CD 05 04               CALL   printStr   
45AF   32 7D 0D 0A 41 63 74 75 61 6C 3A 20 00 .CSTR   "2}","\r\nActual: "   
45BC   CD 2A 04               CALL   printdec   
45BF   CD 05 04               CALL   printStr   
45C2   0D 0A 45 78 70 65 63 74 65 64 3A 20 00 .CSTR   "\r\nExpected: "   
45CF   21 01 00               LD   HL,1   
45D2   CD 2A 04               CALL   printdec   
45D5   76                     HALT      
45D6   00                     .CSTR      
45D7                EXPECTM_0_2054S29:      
45D7   E1                     POP   HL   
45D8                          ;*Macro unroll:  test "1 2 3 ' +", 3
45D8   CD FC 03               CALL   enter   
45DB   31 20 32 20 33 20 27 20 2B 00 .CSTR   "1 2 3 ' +"   
45E5                          ;*Macro unroll:  expect "1 2 3 ' +",3
45E5   E1                     POP   HL   
45E6   E5                     PUSH   HL   
45E7   11 03 00               LD   DE,3   
45EA   B7                     OR   A   
45EB   ED 52                  SBC   HL,DE   
45ED   7D                     LD   A,L   
45EE   B4                     OR   H   
45EF   28 32                  JR   Z,expectM_0_2055S29   
45F1   CD 05 04               CALL   printStr   
45F4   31 20 32 20 33 20 27 20 2B 0D 0A 41 63 74 75 61 6C 3A 20 00 .CSTR   "1 2 3 ' +","\r\nActual: "   
4608   CD 2A 04               CALL   printdec   
460B   CD 05 04               CALL   printStr   
460E   0D 0A 45 78 70 65 63 74 65 64 3A 20 00 .CSTR   "\r\nExpected: "   
461B   21 03 00               LD   HL,3   
461E   CD 2A 04               CALL   printdec   
4621   76                     HALT      
4622   00                     .CSTR      
4623                EXPECTM_0_2055S29:      
4623   E1                     POP   HL   
4624                          ;*Macro unroll:  test "2 3*", 6
4624   CD FC 03               CALL   enter   
4627   32 20 33 2A 00         .CSTR   "2 3*"   
462C                          ;*Macro unroll:  expect "2 3*",6
462C   E1                     POP   HL   
462D   E5                     PUSH   HL   
462E   11 06 00               LD   DE,6   
4631   B7                     OR   A   
4632   ED 52                  SBC   HL,DE   
4634   7D                     LD   A,L   
4635   B4                     OR   H   
4636   28 2D                  JR   Z,expectM_0_2056S29   
4638   CD 05 04               CALL   printStr   
463B   32 20 33 2A 0D 0A 41 63 74 75 61 6C 3A 20 00 .CSTR   "2 3*","\r\nActual: "   
464A   CD 2A 04               CALL   printdec   
464D   CD 05 04               CALL   printStr   
4650   0D 0A 45 78 70 65 63 74 65 64 3A 20 00 .CSTR   "\r\nExpected: "   
465D   21 06 00               LD   HL,6   
4660   CD 2A 04               CALL   printdec   
4663   76                     HALT      
4664   00                     .CSTR      
4665                EXPECTM_0_2056S29:      
4665   E1                     POP   HL   
4666                          ;*Macro unroll:  test "1 2 3+*", 5
4666   CD FC 03               CALL   enter   
4669   31 20 32 20 33 2B 2A 00 .CSTR   "1 2 3+*"   
4671                          ;*Macro unroll:  expect "1 2 3+*",5
4671   E1                     POP   HL   
4672   E5                     PUSH   HL   
4673   11 05 00               LD   DE,5   
4676   B7                     OR   A   
4677   ED 52                  SBC   HL,DE   
4679   7D                     LD   A,L   
467A   B4                     OR   H   
467B   28 30                  JR   Z,expectM_0_2057S29   
467D   CD 05 04               CALL   printStr   
4680   31 20 32 20 33 2B 2A 0D 0A 41 63 74 75 61 6C 3A 20 00 .CSTR   "1 2 3+*","\r\nActual: "   
4692   CD 2A 04               CALL   printdec   
4695   CD 05 04               CALL   printStr   
4698   0D 0A 45 78 70 65 63 74 65 64 3A 20 00 .CSTR   "\r\nExpected: "   
46A5   21 05 00               LD   HL,5   
46A8   CD 2A 04               CALL   printdec   
46AB   76                     HALT      
46AC   00                     .CSTR      
46AD                EXPECTM_0_2057S29:      
46AD   E1                     POP   HL   
46AE   CD FC 03               CALL   enter   
46B1   31 20 33 22 2B 00      .CSTR   "1 3",$22,"+"   
46B7                          ;*Macro unroll:  expect "1 3 DUP +", 6
46B7   E1                     POP   HL   
46B8   E5                     PUSH   HL   
46B9   11 06 00               LD   DE,6   
46BC   B7                     OR   A   
46BD   ED 52                  SBC   HL,DE   
46BF   7D                     LD   A,L   
46C0   B4                     OR   H   
46C1   28 32                  JR   Z,expectM_2060S51   
46C3   CD 05 04               CALL   printStr   
46C6   31 20 33 20 44 55 50 20 2B 0D 0A 41 63 74 75 61 6C 3A 20 00 .CSTR   "1 3 DUP +","\r\nActual: "   
46DA   CD 2A 04               CALL   printdec   
46DD   CD 05 04               CALL   printStr   
46E0   0D 0A 45 78 70 65 63 74 65 64 3A 20 00 .CSTR   "\r\nExpected: "   
46ED   21 06 00               LD   HL,6   
46F0   CD 2A 04               CALL   printdec   
46F3   76                     HALT      
46F4   00                     .CSTR      
46F5                EXPECTM_2060S51:      
46F5   E1                     POP   HL   
46F6                          ;*Macro unroll:  test "5 2/'", 2
46F6   CD FC 03               CALL   enter   
46F9   35 20 32 2F 27 00      .CSTR   "5 2/'"   
46FF                          ;*Macro unroll:  expect "5 2/'",2
46FF   E1                     POP   HL   
4700   E5                     PUSH   HL   
4701   11 02 00               LD   DE,2   
4704   B7                     OR   A   
4705   ED 52                  SBC   HL,DE   
4707   7D                     LD   A,L   
4708   B4                     OR   H   
4709   28 2E                  JR   Z,expectM_0_2061S29   
470B   CD 05 04               CALL   printStr   
470E   35 20 32 2F 27 0D 0A 41 63 74 75 61 6C 3A 20 00 .CSTR   "5 2/'","\r\nActual: "   
471E   CD 2A 04               CALL   printdec   
4721   CD 05 04               CALL   printStr   
4724   0D 0A 45 78 70 65 63 74 65 64 3A 20 00 .CSTR   "\r\nExpected: "   
4731   21 02 00               LD   HL,2   
4734   CD 2A 04               CALL   printdec   
4737   76                     HALT      
4738   00                     .CSTR      
4739                EXPECTM_0_2061S29:      
4739   E1                     POP   HL   
473A                          ;*Macro unroll:  test "3 5$ -", 2
473A   CD FC 03               CALL   enter   
473D   33 20 35 24 20 2D 00   .CSTR   "3 5$ -"   
4744                          ;*Macro unroll:  expect "3 5$ -",2
4744   E1                     POP   HL   
4745   E5                     PUSH   HL   
4746   11 02 00               LD   DE,2   
4749   B7                     OR   A   
474A   ED 52                  SBC   HL,DE   
474C   7D                     LD   A,L   
474D   B4                     OR   H   
474E   28 2F                  JR   Z,expectM_0_2062S29   
4750   CD 05 04               CALL   printStr   
4753   33 20 35 24 20 2D 0D 0A 41 63 74 75 61 6C 3A 20 00 .CSTR   "3 5$ -","\r\nActual: "   
4764   CD 2A 04               CALL   printdec   
4767   CD 05 04               CALL   printStr   
476A   0D 0A 45 78 70 65 63 74 65 64 3A 20 00 .CSTR   "\r\nExpected: "   
4777   21 02 00               LD   HL,2   
477A   CD 2A 04               CALL   printdec   
477D   76                     HALT      
477E   00                     .CSTR      
477F                EXPECTM_0_2062S29:      
477F   E1                     POP   HL   
4780                          ;*Macro unroll:  test "5 2/$ '", 1
4780   CD FC 03               CALL   enter   
4783   35 20 32 2F 24 20 27 00 .CSTR   "5 2/$ '"   
478B                          ;*Macro unroll:  expect "5 2/$ '",1
478B   E1                     POP   HL   
478C   E5                     PUSH   HL   
478D   11 01 00               LD   DE,1   
4790   B7                     OR   A   
4791   ED 52                  SBC   HL,DE   
4793   7D                     LD   A,L   
4794   B4                     OR   H   
4795   28 30                  JR   Z,expectM_0_2063S29   
4797   CD 05 04               CALL   printStr   
479A   35 20 32 2F 24 20 27 0D 0A 41 63 74 75 61 6C 3A 20 00 .CSTR   "5 2/$ '","\r\nActual: "   
47AC   CD 2A 04               CALL   printdec   
47AF   CD 05 04               CALL   printStr   
47B2   0D 0A 45 78 70 65 63 74 65 64 3A 20 00 .CSTR   "\r\nExpected: "   
47BF   21 01 00               LD   HL,1   
47C2   CD 2A 04               CALL   printdec   
47C5   76                     HALT      
47C6   00                     .CSTR      
47C7                EXPECTM_0_2063S29:      
47C7   E1                     POP   HL   
47C8                          ;*Macro unroll:  test "2 3%++", 7
47C8   CD FC 03               CALL   enter   
47CB   32 20 33 25 2B 2B 00   .CSTR   "2 3%++"   
47D2                          ;*Macro unroll:  expect "2 3%++",7
47D2   E1                     POP   HL   
47D3   E5                     PUSH   HL   
47D4   11 07 00               LD   DE,7   
47D7   B7                     OR   A   
47D8   ED 52                  SBC   HL,DE   
47DA   7D                     LD   A,L   
47DB   B4                     OR   H   
47DC   28 2F                  JR   Z,expectM_0_2064S29   
47DE   CD 05 04               CALL   printStr   
47E1   32 20 33 25 2B 2B 0D 0A 41 63 74 75 61 6C 3A 20 00 .CSTR   "2 3%++","\r\nActual: "   
47F2   CD 2A 04               CALL   printdec   
47F5   CD 05 04               CALL   printStr   
47F8   0D 0A 45 78 70 65 63 74 65 64 3A 20 00 .CSTR   "\r\nExpected: "   
4805   21 07 00               LD   HL,7   
4808   CD 2A 04               CALL   printdec   
480B   76                     HALT      
480C   00                     .CSTR      
480D                EXPECTM_0_2064S29:      
480D   E1                     POP   HL   
480E                          ;*Macro unroll:  test "1 2 3~''", 2
480E   CD FC 03               CALL   enter   
4811   31 20 32 20 33 7E 27 27 00 .CSTR   "1 2 3~''"   
481A                          ;*Macro unroll:  expect "1 2 3~''",2
481A   E1                     POP   HL   
481B   E5                     PUSH   HL   
481C   11 02 00               LD   DE,2   
481F   B7                     OR   A   
4820   ED 52                  SBC   HL,DE   
4822   7D                     LD   A,L   
4823   B4                     OR   H   
4824   28 31                  JR   Z,expectM_0_2065S29   
4826   CD 05 04               CALL   printStr   
4829   31 20 32 20 33 7E 27 27 0D 0A 41 63 74 75 61 6C 3A 20 00 .CSTR   "1 2 3~''","\r\nActual: "   
483C   CD 2A 04               CALL   printdec   
483F   CD 05 04               CALL   printStr   
4842   0D 0A 45 78 70 65 63 74 65 64 3A 20 00 .CSTR   "\r\nExpected: "   
484F   21 02 00               LD   HL,2   
4852   CD 2A 04               CALL   printdec   
4855   76                     HALT      
4856   00                     .CSTR      
4857                EXPECTM_0_2065S29:      
4857   E1                     POP   HL   
4858                          ;*Macro unroll:  test "1 2 3~+*", 8
4858   CD FC 03               CALL   enter   
485B   31 20 32 20 33 7E 2B 2A 00 .CSTR   "1 2 3~+*"   
4864                          ;*Macro unroll:  expect "1 2 3~+*",8
4864   E1                     POP   HL   
4865   E5                     PUSH   HL   
4866   11 08 00               LD   DE,8   
4869   B7                     OR   A   
486A   ED 52                  SBC   HL,DE   
486C   7D                     LD   A,L   
486D   B4                     OR   H   
486E   28 31                  JR   Z,expectM_0_2066S29   
4870   CD 05 04               CALL   printStr   
4873   31 20 32 20 33 7E 2B 2A 0D 0A 41 63 74 75 61 6C 3A 20 00 .CSTR   "1 2 3~+*","\r\nActual: "   
4886   CD 2A 04               CALL   printdec   
4889   CD 05 04               CALL   printStr   
488C   0D 0A 45 78 70 65 63 74 65 64 3A 20 00 .CSTR   "\r\nExpected: "   
4899   21 08 00               LD   HL,8   
489C   CD 2A 04               CALL   printdec   
489F   76                     HALT      
48A0   00                     .CSTR      
48A1                EXPECTM_0_2066S29:      
48A1   E1                     POP   HL   
48A2                          ;*Macro unroll:  test "10 11 12\\#3$ '$ '$ '", 4
48A2   CD FC 03               CALL   enter   
48A5   31 30 20 31 31 20 31 32 5C 23 33 24 20 27 24 20 27 24 20 27 00 .CSTR   "10 11 12\\#3$ '$ '$ '"   
48BA                          ;*Macro unroll:  expect "10 11 12\\#3$ '$ '$ '",4
48BA   E1                     POP   HL   
48BB   E5                     PUSH   HL   
48BC   11 04 00               LD   DE,4   
48BF   B7                     OR   A   
48C0   ED 52                  SBC   HL,DE   
48C2   7D                     LD   A,L   
48C3   B4                     OR   H   
48C4   28 3D                  JR   Z,expectM_0_2067S29   
48C6   CD 05 04               CALL   printStr   
48C9   31 30 20 31 31 20 31 32 5C 23 33 24 20 27 24 20 27 24 20 27 0D 0A 41 63 74 75 61 6C 3A 20 00 .CSTR   "10 11 12\\#3$ '$ '$ '","\r\nActual: "   
48E8   CD 2A 04               CALL   printdec   
48EB   CD 05 04               CALL   printStr   
48EE   0D 0A 45 78 70 65 63 74 65 64 3A 20 00 .CSTR   "\r\nExpected: "   
48FB   21 04 00               LD   HL,4   
48FE   CD 2A 04               CALL   printdec   
4901   76                     HALT      
4902   00                     .CSTR      
4903                EXPECTM_0_2067S29:      
4903   E1                     POP   HL   
4904                          ;*Macro unroll:  test "2a!a@",2
4904   CD FC 03               CALL   enter   
4907   32 61 21 61 40 00      .CSTR   "2a!a@"   
490D                          ;*Macro unroll:  expect "2a!a@",2
490D   E1                     POP   HL   
490E   E5                     PUSH   HL   
490F   11 02 00               LD   DE,2   
4912   B7                     OR   A   
4913   ED 52                  SBC   HL,DE   
4915   7D                     LD   A,L   
4916   B4                     OR   H   
4917   28 2E                  JR   Z,expectM_0_2068S29   
4919   CD 05 04               CALL   printStr   
491C   32 61 21 61 40 0D 0A 41 63 74 75 61 6C 3A 20 00 .CSTR   "2a!a@","\r\nActual: "   
492C   CD 2A 04               CALL   printdec   
492F   CD 05 04               CALL   printStr   
4932   0D 0A 45 78 70 65 63 74 65 64 3A 20 00 .CSTR   "\r\nExpected: "   
493F   21 02 00               LD   HL,2   
4942   CD 2A 04               CALL   printdec   
4945   76                     HALT      
4946   00                     .CSTR      
4947                EXPECTM_0_2068S29:      
4947   E1                     POP   HL   
4948                          ;*Macro unroll:  test "3x! 1 x@+x! x@", 4
4948   CD FC 03               CALL   enter   
494B   33 78 21 20 31 20 78 40 2B 78 21 20 78 40 00 .CSTR   "3x! 1 x@+x! x@"   
495A                          ;*Macro unroll:  expect "3x! 1 x@+x! x@",4
495A   E1                     POP   HL   
495B   E5                     PUSH   HL   
495C   11 04 00               LD   DE,4   
495F   B7                     OR   A   
4960   ED 52                  SBC   HL,DE   
4962   7D                     LD   A,L   
4963   B4                     OR   H   
4964   28 37                  JR   Z,expectM_0_2069S29   
4966   CD 05 04               CALL   printStr   
4969   33 78 21 20 31 20 78 40 2B 78 21 20 78 40 0D 0A 41 63 74 75 61 6C 3A 20 00 .CSTR   "3x! 1 x@+x! x@","\r\nActual: "   
4982   CD 2A 04               CALL   printdec   
4985   CD 05 04               CALL   printStr   
4988   0D 0A 45 78 70 65 63 74 65 64 3A 20 00 .CSTR   "\r\nExpected: "   
4995   21 04 00               LD   HL,4   
4998   CD 2A 04               CALL   printdec   
499B   76                     HALT      
499C   00                     .CSTR      
499D                EXPECTM_0_2069S29:      
499D   E1                     POP   HL   
499E                          ;*Macro unroll:  test "3x! 1_ x@+x! x@", 2
499E   CD FC 03               CALL   enter   
49A1   33 78 21 20 31 5F 20 78 40 2B 78 21 20 78 40 00 .CSTR   "3x! 1_ x@+x! x@"   
49B1                          ;*Macro unroll:  expect "3x! 1_ x@+x! x@",2
49B1   E1                     POP   HL   
49B2   E5                     PUSH   HL   
49B3   11 02 00               LD   DE,2   
49B6   B7                     OR   A   
49B7   ED 52                  SBC   HL,DE   
49B9   7D                     LD   A,L   
49BA   B4                     OR   H   
49BB   28 38                  JR   Z,expectM_0_2070S29   
49BD   CD 05 04               CALL   printStr   
49C0   33 78 21 20 31 5F 20 78 40 2B 78 21 20 78 40 0D 0A 41 63 74 75 61 6C 3A 20 00 .CSTR   "3x! 1_ x@+x! x@","\r\nActual: "   
49DA   CD 2A 04               CALL   printdec   
49DD   CD 05 04               CALL   printStr   
49E0   0D 0A 45 78 70 65 63 74 65 64 3A 20 00 .CSTR   "\r\nExpected: "   
49ED   21 02 00               LD   HL,2   
49F0   CD 2A 04               CALL   printdec   
49F3   76                     HALT      
49F4   00                     .CSTR      
49F5                EXPECTM_0_2070S29:      
49F5   E1                     POP   HL   
49F6                          ;*Macro unroll:  test ":X1; X", 1
49F6   CD FC 03               CALL   enter   
49F9   3A 58 31 3B 20 58 00   .CSTR   ":X1; X"   
4A00                          ;*Macro unroll:  expect ":X1; X",1
4A00   E1                     POP   HL   
4A01   E5                     PUSH   HL   
4A02   11 01 00               LD   DE,1   
4A05   B7                     OR   A   
4A06   ED 52                  SBC   HL,DE   
4A08   7D                     LD   A,L   
4A09   B4                     OR   H   
4A0A   28 2F                  JR   Z,expectM_0_2071S29   
4A0C   CD 05 04               CALL   printStr   
4A0F   3A 58 31 3B 20 58 0D 0A 41 63 74 75 61 6C 3A 20 00 .CSTR   ":X1; X","\r\nActual: "   
4A20   CD 2A 04               CALL   printdec   
4A23   CD 05 04               CALL   printStr   
4A26   0D 0A 45 78 70 65 63 74 65 64 3A 20 00 .CSTR   "\r\nExpected: "   
4A33   21 01 00               LD   HL,1   
4A36   CD 2A 04               CALL   printdec   
4A39   76                     HALT      
4A3A   00                     .CSTR      
4A3B                EXPECTM_0_2071S29:      
4A3B   E1                     POP   HL   
4A3C                          ;*Macro unroll:  test ":A100;A", 100
4A3C   CD FC 03               CALL   enter   
4A3F   3A 41 31 30 30 3B 41 00 .CSTR   ":A100;A"   
4A47                          ;*Macro unroll:  expect ":A100;A",100
4A47   E1                     POP   HL   
4A48   E5                     PUSH   HL   
4A49   11 64 00               LD   DE,100   
4A4C   B7                     OR   A   
4A4D   ED 52                  SBC   HL,DE   
4A4F   7D                     LD   A,L   
4A50   B4                     OR   H   
4A51   28 30                  JR   Z,expectM_0_2072S29   
4A53   CD 05 04               CALL   printStr   
4A56   3A 41 31 30 30 3B 41 0D 0A 41 63 74 75 61 6C 3A 20 00 .CSTR   ":A100;A","\r\nActual: "   
4A68   CD 2A 04               CALL   printdec   
4A6B   CD 05 04               CALL   printStr   
4A6E   0D 0A 45 78 70 65 63 74 65 64 3A 20 00 .CSTR   "\r\nExpected: "   
4A7B   21 64 00               LD   HL,100   
4A7E   CD 2A 04               CALL   printdec   
4A81   76                     HALT      
4A82   00                     .CSTR      
4A83                EXPECTM_0_2072S29:      
4A83   E1                     POP   HL   
4A84                          ;*Macro unroll:  test ":Aa!; 3A a@", 3
4A84   CD FC 03               CALL   enter   
4A87   3A 41 61 21 3B 20 33 41 20 61 40 00 .CSTR   ":Aa!; 3A a@"   
4A93                          ;*Macro unroll:  expect ":Aa!; 3A a@",3
4A93   E1                     POP   HL   
4A94   E5                     PUSH   HL   
4A95   11 03 00               LD   DE,3   
4A98   B7                     OR   A   
4A99   ED 52                  SBC   HL,DE   
4A9B   7D                     LD   A,L   
4A9C   B4                     OR   H   
4A9D   28 34                  JR   Z,expectM_0_2073S29   
4A9F   CD 05 04               CALL   printStr   
4AA2   3A 41 61 21 3B 20 33 41 20 61 40 0D 0A 41 63 74 75 61 6C 3A 20 00 .CSTR   ":Aa!; 3A a@","\r\nActual: "   
4AB8   CD 2A 04               CALL   printdec   
4ABB   CD 05 04               CALL   printStr   
4ABE   0D 0A 45 78 70 65 63 74 65 64 3A 20 00 .CSTR   "\r\nExpected: "   
4ACB   21 03 00               LD   HL,3   
4ACE   CD 2A 04               CALL   printdec   
4AD1   76                     HALT      
4AD2   00                     .CSTR      
4AD3                EXPECTM_0_2073S29:      
4AD3   E1                     POP   HL   
4AD4                          ;*Macro unroll:  test ":Aa!;:Ba@;4AB", 4
4AD4   CD FC 03               CALL   enter   
4AD7   3A 41 61 21 3B 3A 42 61 40 3B 34 41 42 00 .CSTR   ":Aa!;:Ba@;4AB"   
4AE5                          ;*Macro unroll:  expect ":Aa!;:Ba@;4AB",4
4AE5   E1                     POP   HL   
4AE6   E5                     PUSH   HL   
4AE7   11 04 00               LD   DE,4   
4AEA   B7                     OR   A   
4AEB   ED 52                  SBC   HL,DE   
4AED   7D                     LD   A,L   
4AEE   B4                     OR   H   
4AEF   28 36                  JR   Z,expectM_0_2074S29   
4AF1   CD 05 04               CALL   printStr   
4AF4   3A 41 61 21 3B 3A 42 61 40 3B 34 41 42 0D 0A 41 63 74 75 61 6C 3A 20 00 .CSTR   ":Aa!;:Ba@;4AB","\r\nActual: "   
4B0C   CD 2A 04               CALL   printdec   
4B0F   CD 05 04               CALL   printStr   
4B12   0D 0A 45 78 70 65 63 74 65 64 3A 20 00 .CSTR   "\r\nExpected: "   
4B1F   21 04 00               LD   HL,4   
4B22   CD 2A 04               CALL   printdec   
4B25   76                     HALT      
4B26   00                     .CSTR      
4B27                EXPECTM_0_2074S29:      
4B27   E1                     POP   HL   
4B28                          ;*Macro unroll:  test "\\:2; \\^", 2
4B28   CD FC 03               CALL   enter   
4B2B   5C 3A 32 3B 20 5C 5E 00 .CSTR   "\\:2; \\^"   
4B33                          ;*Macro unroll:  expect "\\:2; \\^",2
4B33   E1                     POP   HL   
4B34   E5                     PUSH   HL   
4B35   11 02 00               LD   DE,2   
4B38   B7                     OR   A   
4B39   ED 52                  SBC   HL,DE   
4B3B   7D                     LD   A,L   
4B3C   B4                     OR   H   
4B3D   28 30                  JR   Z,expectM_0_2075S29   
4B3F   CD 05 04               CALL   printStr   
4B42   5C 3A 32 3B 20 5C 5E 0D 0A 41 63 74 75 61 6C 3A 20 00 .CSTR   "\\:2; \\^","\r\nActual: "   
4B54   CD 2A 04               CALL   printdec   
4B57   CD 05 04               CALL   printStr   
4B5A   0D 0A 45 78 70 65 63 74 65 64 3A 20 00 .CSTR   "\r\nExpected: "   
4B67   21 02 00               LD   HL,2   
4B6A   CD 2A 04               CALL   printdec   
4B6D   76                     HALT      
4B6E   00                     .CSTR      
4B6F                EXPECTM_0_2075S29:      
4B6F   E1                     POP   HL   
4B70                          ;*Macro unroll:  test "[]$ '", 0
4B70   CD FC 03               CALL   enter   
4B73   5B 5D 24 20 27 00      .CSTR   "[]$ '"   
4B79                          ;*Macro unroll:  expect "[]$ '",0
4B79   E1                     POP   HL   
4B7A   E5                     PUSH   HL   
4B7B   11 00 00               LD   DE,0   
4B7E   B7                     OR   A   
4B7F   ED 52                  SBC   HL,DE   
4B81   7D                     LD   A,L   
4B82   B4                     OR   H   
4B83   28 2E                  JR   Z,expectM_0_2076S29   
4B85   CD 05 04               CALL   printStr   
4B88   5B 5D 24 20 27 0D 0A 41 63 74 75 61 6C 3A 20 00 .CSTR   "[]$ '","\r\nActual: "   
4B98   CD 2A 04               CALL   printdec   
4B9B   CD 05 04               CALL   printStr   
4B9E   0D 0A 45 78 70 65 63 74 65 64 3A 20 00 .CSTR   "\r\nExpected: "   
4BAB   21 00 00               LD   HL,0   
4BAE   CD 2A 04               CALL   printdec   
4BB1   76                     HALT      
4BB2   00                     .CSTR      
4BB3                EXPECTM_0_2076S29:      
4BB3   E1                     POP   HL   
4BB4                          ;*Macro unroll:  test "[3]$ '", 1
4BB4   CD FC 03               CALL   enter   
4BB7   5B 33 5D 24 20 27 00   .CSTR   "[3]$ '"   
4BBE                          ;*Macro unroll:  expect "[3]$ '",1
4BBE   E1                     POP   HL   
4BBF   E5                     PUSH   HL   
4BC0   11 01 00               LD   DE,1   
4BC3   B7                     OR   A   
4BC4   ED 52                  SBC   HL,DE   
4BC6   7D                     LD   A,L   
4BC7   B4                     OR   H   
4BC8   28 2F                  JR   Z,expectM_0_2077S29   
4BCA   CD 05 04               CALL   printStr   
4BCD   5B 33 5D 24 20 27 0D 0A 41 63 74 75 61 6C 3A 20 00 .CSTR   "[3]$ '","\r\nActual: "   
4BDE   CD 2A 04               CALL   printdec   
4BE1   CD 05 04               CALL   printStr   
4BE4   0D 0A 45 78 70 65 63 74 65 64 3A 20 00 .CSTR   "\r\nExpected: "   
4BF1   21 01 00               LD   HL,1   
4BF4   CD 2A 04               CALL   printdec   
4BF7   76                     HALT      
4BF8   00                     .CSTR      
4BF9                EXPECTM_0_2077S29:      
4BF9   E1                     POP   HL   
4BFA                          ;*Macro unroll:  test "[3]'@", 3
4BFA   CD FC 03               CALL   enter   
4BFD   5B 33 5D 27 40 00      .CSTR   "[3]'@"   
4C03                          ;*Macro unroll:  expect "[3]'@",3
4C03   E1                     POP   HL   
4C04   E5                     PUSH   HL   
4C05   11 03 00               LD   DE,3   
4C08   B7                     OR   A   
4C09   ED 52                  SBC   HL,DE   
4C0B   7D                     LD   A,L   
4C0C   B4                     OR   H   
4C0D   28 2E                  JR   Z,expectM_0_2078S29   
4C0F   CD 05 04               CALL   printStr   
4C12   5B 33 5D 27 40 0D 0A 41 63 74 75 61 6C 3A 20 00 .CSTR   "[3]'@","\r\nActual: "   
4C22   CD 2A 04               CALL   printdec   
4C25   CD 05 04               CALL   printStr   
4C28   0D 0A 45 78 70 65 63 74 65 64 3A 20 00 .CSTR   "\r\nExpected: "   
4C35   21 03 00               LD   HL,3   
4C38   CD 2A 04               CALL   printdec   
4C3B   76                     HALT      
4C3C   00                     .CSTR      
4C3D                EXPECTM_0_2078S29:      
4C3D   E1                     POP   HL   
4C3E                          ;*Macro unroll:  test "[1 2 3]'@", 1
4C3E   CD FC 03               CALL   enter   
4C41   5B 31 20 32 20 33 5D 27 40 00 .CSTR   "[1 2 3]'@"   
4C4B                          ;*Macro unroll:  expect "[1 2 3]'@",1
4C4B   E1                     POP   HL   
4C4C   E5                     PUSH   HL   
4C4D   11 01 00               LD   DE,1   
4C50   B7                     OR   A   
4C51   ED 52                  SBC   HL,DE   
4C53   7D                     LD   A,L   
4C54   B4                     OR   H   
4C55   28 32                  JR   Z,expectM_0_2079S29   
4C57   CD 05 04               CALL   printStr   
4C5A   5B 31 20 32 20 33 5D 27 40 0D 0A 41 63 74 75 61 6C 3A 20 00 .CSTR   "[1 2 3]'@","\r\nActual: "   
4C6E   CD 2A 04               CALL   printdec   
4C71   CD 05 04               CALL   printStr   
4C74   0D 0A 45 78 70 65 63 74 65 64 3A 20 00 .CSTR   "\r\nExpected: "   
4C81   21 01 00               LD   HL,1   
4C84   CD 2A 04               CALL   printdec   
4C87   76                     HALT      
4C88   00                     .CSTR      
4C89                EXPECTM_0_2079S29:      
4C89   E1                     POP   HL   
4C8A                          ;*Macro unroll:  test "[1 2 3]'2+@", 2
4C8A   CD FC 03               CALL   enter   
4C8D   5B 31 20 32 20 33 5D 27 32 2B 40 00 .CSTR   "[1 2 3]'2+@"   
4C99                          ;*Macro unroll:  expect "[1 2 3]'2+@",2
4C99   E1                     POP   HL   
4C9A   E5                     PUSH   HL   
4C9B   11 02 00               LD   DE,2   
4C9E   B7                     OR   A   
4C9F   ED 52                  SBC   HL,DE   
4CA1   7D                     LD   A,L   
4CA2   B4                     OR   H   
4CA3   28 34                  JR   Z,expectM_0_2080S29   
4CA5   CD 05 04               CALL   printStr   
4CA8   5B 31 20 32 20 33 5D 27 32 2B 40 0D 0A 41 63 74 75 61 6C 3A 20 00 .CSTR   "[1 2 3]'2+@","\r\nActual: "   
4CBE   CD 2A 04               CALL   printdec   
4CC1   CD 05 04               CALL   printStr   
4CC4   0D 0A 45 78 70 65 63 74 65 64 3A 20 00 .CSTR   "\r\nExpected: "   
4CD1   21 02 00               LD   HL,2   
4CD4   CD 2A 04               CALL   printdec   
4CD7   76                     HALT      
4CD8   00                     .CSTR      
4CD9                EXPECTM_0_2080S29:      
4CD9   E1                     POP   HL   
4CDA                          ;*Macro unroll:  test "\\h@[1]''\\h@$-", 2
4CDA   CD FC 03               CALL   enter   
4CDD   5C 68 40 5B 31 5D 27 27 5C 68 40 24 2D 00 .CSTR   "\\h@[1]''\\h@$-"   
4CEB                          ;*Macro unroll:  expect "\\h@[1]''\\h@$-",2
4CEB   E1                     POP   HL   
4CEC   E5                     PUSH   HL   
4CED   11 02 00               LD   DE,2   
4CF0   B7                     OR   A   
4CF1   ED 52                  SBC   HL,DE   
4CF3   7D                     LD   A,L   
4CF4   B4                     OR   H   
4CF5   28 36                  JR   Z,expectM_0_2081S29   
4CF7   CD 05 04               CALL   printStr   
4CFA   5C 68 40 5B 31 5D 27 27 5C 68 40 24 2D 0D 0A 41 63 74 75 61 6C 3A 20 00 .CSTR   "\\h@[1]''\\h@$-","\r\nActual: "   
4D12   CD 2A 04               CALL   printdec   
4D15   CD 05 04               CALL   printStr   
4D18   0D 0A 45 78 70 65 63 74 65 64 3A 20 00 .CSTR   "\r\nExpected: "   
4D25   21 02 00               LD   HL,2   
4D28   CD 2A 04               CALL   printdec   
4D2B   76                     HALT      
4D2C   00                     .CSTR      
4D2D                EXPECTM_0_2081S29:      
4D2D   E1                     POP   HL   
4D2E                          ;*Macro unroll:  test "\\h@[1 2 3]''\\h@$-", 6
4D2E   CD FC 03               CALL   enter   
4D31   5C 68 40 5B 31 20 32 20 33 5D 27 27 5C 68 40 24 2D 00 .CSTR   "\\h@[1 2 3]''\\h@$-"   
4D43                          ;*Macro unroll:  expect "\\h@[1 2 3]''\\h@$-",6
4D43   E1                     POP   HL   
4D44   E5                     PUSH   HL   
4D45   11 06 00               LD   DE,6   
4D48   B7                     OR   A   
4D49   ED 52                  SBC   HL,DE   
4D4B   7D                     LD   A,L   
4D4C   B4                     OR   H   
4D4D   28 3A                  JR   Z,expectM_0_2082S29   
4D4F   CD 05 04               CALL   printStr   
4D52   5C 68 40 5B 31 20 32 20 33 5D 27 27 5C 68 40 24 2D 0D 0A 41 63 74 75 61 6C 3A 20 00 .CSTR   "\\h@[1 2 3]''\\h@$-","\r\nActual: "   
4D6E   CD 2A 04               CALL   printdec   
4D71   CD 05 04               CALL   printStr   
4D74   0D 0A 45 78 70 65 63 74 65 64 3A 20 00 .CSTR   "\r\nExpected: "   
4D81   21 06 00               LD   HL,6   
4D84   CD 2A 04               CALL   printdec   
4D87   76                     HALT      
4D88   00                     .CSTR      
4D89                EXPECTM_0_2082S29:      
4D89   E1                     POP   HL   
4D8A                          ;*Macro unroll:  test "\\[]$ '", 0
4D8A   CD FC 03               CALL   enter   
4D8D   5C 5B 5D 24 20 27 00   .CSTR   "\\[]$ '"   
4D94                          ;*Macro unroll:  expect "\\[]$ '",0
4D94   E1                     POP   HL   
4D95   E5                     PUSH   HL   
4D96   11 00 00               LD   DE,0   
4D99   B7                     OR   A   
4D9A   ED 52                  SBC   HL,DE   
4D9C   7D                     LD   A,L   
4D9D   B4                     OR   H   
4D9E   28 2F                  JR   Z,expectM_0_2083S29   
4DA0   CD 05 04               CALL   printStr   
4DA3   5C 5B 5D 24 20 27 0D 0A 41 63 74 75 61 6C 3A 20 00 .CSTR   "\\[]$ '","\r\nActual: "   
4DB4   CD 2A 04               CALL   printdec   
4DB7   CD 05 04               CALL   printStr   
4DBA   0D 0A 45 78 70 65 63 74 65 64 3A 20 00 .CSTR   "\r\nExpected: "   
4DC7   21 00 00               LD   HL,0   
4DCA   CD 2A 04               CALL   printdec   
4DCD   76                     HALT      
4DCE   00                     .CSTR      
4DCF                EXPECTM_0_2083S29:      
4DCF   E1                     POP   HL   
4DD0                          ;*Macro unroll:  test "\\[3]'\\@", 3
4DD0   CD FC 03               CALL   enter   
4DD3   5C 5B 33 5D 27 5C 40 00 .CSTR   "\\[3]'\\@"   
4DDB                          ;*Macro unroll:  expect "\\[3]'\\@",3
4DDB   E1                     POP   HL   
4DDC   E5                     PUSH   HL   
4DDD   11 03 00               LD   DE,3   
4DE0   B7                     OR   A   
4DE1   ED 52                  SBC   HL,DE   
4DE3   7D                     LD   A,L   
4DE4   B4                     OR   H   
4DE5   28 30                  JR   Z,expectM_0_2084S29   
4DE7   CD 05 04               CALL   printStr   
4DEA   5C 5B 33 5D 27 5C 40 0D 0A 41 63 74 75 61 6C 3A 20 00 .CSTR   "\\[3]'\\@","\r\nActual: "   
4DFC   CD 2A 04               CALL   printdec   
4DFF   CD 05 04               CALL   printStr   
4E02   0D 0A 45 78 70 65 63 74 65 64 3A 20 00 .CSTR   "\r\nExpected: "   
4E0F   21 03 00               LD   HL,3   
4E12   CD 2A 04               CALL   printdec   
4E15   76                     HALT      
4E16   00                     .CSTR      
4E17                EXPECTM_0_2084S29:      
4E17   E1                     POP   HL   
4E18                          ;*Macro unroll:  test "\\[3]$ '", 1
4E18   CD FC 03               CALL   enter   
4E1B   5C 5B 33 5D 24 20 27 00 .CSTR   "\\[3]$ '"   
4E23                          ;*Macro unroll:  expect "\\[3]$ '",1
4E23   E1                     POP   HL   
4E24   E5                     PUSH   HL   
4E25   11 01 00               LD   DE,1   
4E28   B7                     OR   A   
4E29   ED 52                  SBC   HL,DE   
4E2B   7D                     LD   A,L   
4E2C   B4                     OR   H   
4E2D   28 30                  JR   Z,expectM_0_2085S29   
4E2F   CD 05 04               CALL   printStr   
4E32   5C 5B 33 5D 24 20 27 0D 0A 41 63 74 75 61 6C 3A 20 00 .CSTR   "\\[3]$ '","\r\nActual: "   
4E44   CD 2A 04               CALL   printdec   
4E47   CD 05 04               CALL   printStr   
4E4A   0D 0A 45 78 70 65 63 74 65 64 3A 20 00 .CSTR   "\r\nExpected: "   
4E57   21 01 00               LD   HL,1   
4E5A   CD 2A 04               CALL   printdec   
4E5D   76                     HALT      
4E5E   00                     .CSTR      
4E5F                EXPECTM_0_2085S29:      
4E5F   E1                     POP   HL   
4E60                          ;*Macro unroll:  test "\\[1 2 3]'\\@", 1
4E60   CD FC 03               CALL   enter   
4E63   5C 5B 31 20 32 20 33 5D 27 5C 40 00 .CSTR   "\\[1 2 3]'\\@"   
4E6F                          ;*Macro unroll:  expect "\\[1 2 3]'\\@",1
4E6F   E1                     POP   HL   
4E70   E5                     PUSH   HL   
4E71   11 01 00               LD   DE,1   
4E74   B7                     OR   A   
4E75   ED 52                  SBC   HL,DE   
4E77   7D                     LD   A,L   
4E78   B4                     OR   H   
4E79   28 34                  JR   Z,expectM_0_2086S29   
4E7B   CD 05 04               CALL   printStr   
4E7E   5C 5B 31 20 32 20 33 5D 27 5C 40 0D 0A 41 63 74 75 61 6C 3A 20 00 .CSTR   "\\[1 2 3]'\\@","\r\nActual: "   
4E94   CD 2A 04               CALL   printdec   
4E97   CD 05 04               CALL   printStr   
4E9A   0D 0A 45 78 70 65 63 74 65 64 3A 20 00 .CSTR   "\r\nExpected: "   
4EA7   21 01 00               LD   HL,1   
4EAA   CD 2A 04               CALL   printdec   
4EAD   76                     HALT      
4EAE   00                     .CSTR      
4EAF                EXPECTM_0_2086S29:      
4EAF   E1                     POP   HL   
4EB0                          ;*Macro unroll:  test "\\[1 2 3]'1+\\@", 2
4EB0   CD FC 03               CALL   enter   
4EB3   5C 5B 31 20 32 20 33 5D 27 31 2B 5C 40 00 .CSTR   "\\[1 2 3]'1+\\@"   
4EC1                          ;*Macro unroll:  expect "\\[1 2 3]'1+\\@",2
4EC1   E1                     POP   HL   
4EC2   E5                     PUSH   HL   
4EC3   11 02 00               LD   DE,2   
4EC6   B7                     OR   A   
4EC7   ED 52                  SBC   HL,DE   
4EC9   7D                     LD   A,L   
4ECA   B4                     OR   H   
4ECB   28 36                  JR   Z,expectM_0_2087S29   
4ECD   CD 05 04               CALL   printStr   
4ED0   5C 5B 31 20 32 20 33 5D 27 31 2B 5C 40 0D 0A 41 63 74 75 61 6C 3A 20 00 .CSTR   "\\[1 2 3]'1+\\@","\r\nActual: "   
4EE8   CD 2A 04               CALL   printdec   
4EEB   CD 05 04               CALL   printStr   
4EEE   0D 0A 45 78 70 65 63 74 65 64 3A 20 00 .CSTR   "\r\nExpected: "   
4EFB   21 02 00               LD   HL,2   
4EFE   CD 2A 04               CALL   printdec   
4F01   76                     HALT      
4F02   00                     .CSTR      
4F03                EXPECTM_0_2087S29:      
4F03   E1                     POP   HL   
4F04                          ;*Macro unroll:  test "\\h@\\[1 2 3]''\\h@$-", 3
4F04   CD FC 03               CALL   enter   
4F07   5C 68 40 5C 5B 31 20 32 20 33 5D 27 27 5C 68 40 24 2D 00 .CSTR   "\\h@\\[1 2 3]''\\h@$-"   
4F1A                          ;*Macro unroll:  expect "\\h@\\[1 2 3]''\\h@$-",3
4F1A   E1                     POP   HL   
4F1B   E5                     PUSH   HL   
4F1C   11 03 00               LD   DE,3   
4F1F   B7                     OR   A   
4F20   ED 52                  SBC   HL,DE   
4F22   7D                     LD   A,L   
4F23   B4                     OR   H   
4F24   28 3B                  JR   Z,expectM_0_2088S29   
4F26   CD 05 04               CALL   printStr   
4F29   5C 68 40 5C 5B 31 20 32 20 33 5D 27 27 5C 68 40 24 2D 0D 0A 41 63 74 75 61 6C 3A 20 00 .CSTR   "\\h@\\[1 2 3]''\\h@$-","\r\nActual: "   
4F46   CD 2A 04               CALL   printdec   
4F49   CD 05 04               CALL   printStr   
4F4C   0D 0A 45 78 70 65 63 74 65 64 3A 20 00 .CSTR   "\r\nExpected: "   
4F59   21 03 00               LD   HL,3   
4F5C   CD 2A 04               CALL   printdec   
4F5F   76                     HALT      
4F60   00                     .CSTR      
4F61                EXPECTM_0_2088S29:      
4F61   E1                     POP   HL   
4F62                          ;*Macro unroll:  test "\\h@\\[1]''\\h@$-", 1
4F62   CD FC 03               CALL   enter   
4F65   5C 68 40 5C 5B 31 5D 27 27 5C 68 40 24 2D 00 .CSTR   "\\h@\\[1]''\\h@$-"   
4F74                          ;*Macro unroll:  expect "\\h@\\[1]''\\h@$-",1
4F74   E1                     POP   HL   
4F75   E5                     PUSH   HL   
4F76   11 01 00               LD   DE,1   
4F79   B7                     OR   A   
4F7A   ED 52                  SBC   HL,DE   
4F7C   7D                     LD   A,L   
4F7D   B4                     OR   H   
4F7E   28 37                  JR   Z,expectM_0_2089S29   
4F80   CD 05 04               CALL   printStr   
4F83   5C 68 40 5C 5B 31 5D 27 27 5C 68 40 24 2D 0D 0A 41 63 74 75 61 6C 3A 20 00 .CSTR   "\\h@\\[1]''\\h@$-","\r\nActual: "   
4F9C   CD 2A 04               CALL   printdec   
4F9F   CD 05 04               CALL   printStr   
4FA2   0D 0A 45 78 70 65 63 74 65 64 3A 20 00 .CSTR   "\r\nExpected: "   
4FAF   21 01 00               LD   HL,1   
4FB2   CD 2A 04               CALL   printdec   
4FB5   76                     HALT      
4FB6   00                     .CSTR      
4FB7                EXPECTM_0_2089S29:      
4FB7   E1                     POP   HL   
4FB8                          ;*Macro unroll:  test "\\`A`\\@",65
4FB8   CD FC 03               CALL   enter   
4FBB   5C 60 41 60 5C 40 00   .CSTR   "\\`A`\\@"   
4FC2                          ;*Macro unroll:  expect "\\`A`\\@",65
4FC2   E1                     POP   HL   
4FC3   E5                     PUSH   HL   
4FC4   11 41 00               LD   DE,65   
4FC7   B7                     OR   A   
4FC8   ED 52                  SBC   HL,DE   
4FCA   7D                     LD   A,L   
4FCB   B4                     OR   H   
4FCC   28 2F                  JR   Z,expectM_0_2090S29   
4FCE   CD 05 04               CALL   printStr   
4FD1   5C 60 41 60 5C 40 0D 0A 41 63 74 75 61 6C 3A 20 00 .CSTR   "\\`A`\\@","\r\nActual: "   
4FE2   CD 2A 04               CALL   printdec   
4FE5   CD 05 04               CALL   printStr   
4FE8   0D 0A 45 78 70 65 63 74 65 64 3A 20 00 .CSTR   "\r\nExpected: "   
4FF5   21 41 00               LD   HL,65   
4FF8   CD 2A 04               CALL   printdec   
4FFB   76                     HALT      
4FFC   00                     .CSTR      
4FFD                EXPECTM_0_2090S29:      
4FFD   E1                     POP   HL   
4FFE                          ;*Macro unroll:  test "0 0(1+)", 0
4FFE   CD FC 03               CALL   enter   
5001   30 20 30 28 31 2B 29 00 .CSTR   "0 0(1+)"   
5009                          ;*Macro unroll:  expect "0 0(1+)",0
5009   E1                     POP   HL   
500A   E5                     PUSH   HL   
500B   11 00 00               LD   DE,0   
500E   B7                     OR   A   
500F   ED 52                  SBC   HL,DE   
5011   7D                     LD   A,L   
5012   B4                     OR   H   
5013   28 30                  JR   Z,expectM_0_2091S29   
5015   CD 05 04               CALL   printStr   
5018   30 20 30 28 31 2B 29 0D 0A 41 63 74 75 61 6C 3A 20 00 .CSTR   "0 0(1+)","\r\nActual: "   
502A   CD 2A 04               CALL   printdec   
502D   CD 05 04               CALL   printStr   
5030   0D 0A 45 78 70 65 63 74 65 64 3A 20 00 .CSTR   "\r\nExpected: "   
503D   21 00 00               LD   HL,0   
5040   CD 2A 04               CALL   printdec   
5043   76                     HALT      
5044   00                     .CSTR      
5045                EXPECTM_0_2091S29:      
5045   E1                     POP   HL   
5046                          ;*Macro unroll:  test "0 1(1+)", 1
5046   CD FC 03               CALL   enter   
5049   30 20 31 28 31 2B 29 00 .CSTR   "0 1(1+)"   
5051                          ;*Macro unroll:  expect "0 1(1+)",1
5051   E1                     POP   HL   
5052   E5                     PUSH   HL   
5053   11 01 00               LD   DE,1   
5056   B7                     OR   A   
5057   ED 52                  SBC   HL,DE   
5059   7D                     LD   A,L   
505A   B4                     OR   H   
505B   28 30                  JR   Z,expectM_0_2092S29   
505D   CD 05 04               CALL   printStr   
5060   30 20 31 28 31 2B 29 0D 0A 41 63 74 75 61 6C 3A 20 00 .CSTR   "0 1(1+)","\r\nActual: "   
5072   CD 2A 04               CALL   printdec   
5075   CD 05 04               CALL   printStr   
5078   0D 0A 45 78 70 65 63 74 65 64 3A 20 00 .CSTR   "\r\nExpected: "   
5085   21 01 00               LD   HL,1   
5088   CD 2A 04               CALL   printdec   
508B   76                     HALT      
508C   00                     .CSTR      
508D                EXPECTM_0_2092S29:      
508D   E1                     POP   HL   
508E                          ;*Macro unroll:  test "0 2(1+)", 2
508E   CD FC 03               CALL   enter   
5091   30 20 32 28 31 2B 29 00 .CSTR   "0 2(1+)"   
5099                          ;*Macro unroll:  expect "0 2(1+)",2
5099   E1                     POP   HL   
509A   E5                     PUSH   HL   
509B   11 02 00               LD   DE,2   
509E   B7                     OR   A   
509F   ED 52                  SBC   HL,DE   
50A1   7D                     LD   A,L   
50A2   B4                     OR   H   
50A3   28 30                  JR   Z,expectM_0_2093S29   
50A5   CD 05 04               CALL   printStr   
50A8   30 20 32 28 31 2B 29 0D 0A 41 63 74 75 61 6C 3A 20 00 .CSTR   "0 2(1+)","\r\nActual: "   
50BA   CD 2A 04               CALL   printdec   
50BD   CD 05 04               CALL   printStr   
50C0   0D 0A 45 78 70 65 63 74 65 64 3A 20 00 .CSTR   "\r\nExpected: "   
50CD   21 02 00               LD   HL,2   
50D0   CD 2A 04               CALL   printdec   
50D3   76                     HALT      
50D4   00                     .CSTR      
50D5                EXPECTM_0_2093S29:      
50D5   E1                     POP   HL   
50D6                          ;*Macro unroll:  test "0 1(0(1+))", 0
50D6   CD FC 03               CALL   enter   
50D9   30 20 31 28 30 28 31 2B 29 29 00 .CSTR   "0 1(0(1+))"   
50E4                          ;*Macro unroll:  expect "0 1(0(1+))",0
50E4   E1                     POP   HL   
50E5   E5                     PUSH   HL   
50E6   11 00 00               LD   DE,0   
50E9   B7                     OR   A   
50EA   ED 52                  SBC   HL,DE   
50EC   7D                     LD   A,L   
50ED   B4                     OR   H   
50EE   28 33                  JR   Z,expectM_0_2094S29   
50F0   CD 05 04               CALL   printStr   
50F3   30 20 31 28 30 28 31 2B 29 29 0D 0A 41 63 74 75 61 6C 3A 20 00 .CSTR   "0 1(0(1+))","\r\nActual: "   
5108   CD 2A 04               CALL   printdec   
510B   CD 05 04               CALL   printStr   
510E   0D 0A 45 78 70 65 63 74 65 64 3A 20 00 .CSTR   "\r\nExpected: "   
511B   21 00 00               LD   HL,0   
511E   CD 2A 04               CALL   printdec   
5121   76                     HALT      
5122   00                     .CSTR      
5123                EXPECTM_0_2094S29:      
5123   E1                     POP   HL   
5124                          ;*Macro unroll:  test "0 1(1(1+))", 1
5124   CD FC 03               CALL   enter   
5127   30 20 31 28 31 28 31 2B 29 29 00 .CSTR   "0 1(1(1+))"   
5132                          ;*Macro unroll:  expect "0 1(1(1+))",1
5132   E1                     POP   HL   
5133   E5                     PUSH   HL   
5134   11 01 00               LD   DE,1   
5137   B7                     OR   A   
5138   ED 52                  SBC   HL,DE   
513A   7D                     LD   A,L   
513B   B4                     OR   H   
513C   28 33                  JR   Z,expectM_0_2095S29   
513E   CD 05 04               CALL   printStr   
5141   30 20 31 28 31 28 31 2B 29 29 0D 0A 41 63 74 75 61 6C 3A 20 00 .CSTR   "0 1(1(1+))","\r\nActual: "   
5156   CD 2A 04               CALL   printdec   
5159   CD 05 04               CALL   printStr   
515C   0D 0A 45 78 70 65 63 74 65 64 3A 20 00 .CSTR   "\r\nExpected: "   
5169   21 01 00               LD   HL,1   
516C   CD 2A 04               CALL   printdec   
516F   76                     HALT      
5170   00                     .CSTR      
5171                EXPECTM_0_2095S29:      
5171   E1                     POP   HL   
5172                          ;*Macro unroll:  test "0 2(1(1+))", 2
5172   CD FC 03               CALL   enter   
5175   30 20 32 28 31 28 31 2B 29 29 00 .CSTR   "0 2(1(1+))"   
5180                          ;*Macro unroll:  expect "0 2(1(1+))",2
5180   E1                     POP   HL   
5181   E5                     PUSH   HL   
5182   11 02 00               LD   DE,2   
5185   B7                     OR   A   
5186   ED 52                  SBC   HL,DE   
5188   7D                     LD   A,L   
5189   B4                     OR   H   
518A   28 33                  JR   Z,expectM_0_2096S29   
518C   CD 05 04               CALL   printStr   
518F   30 20 32 28 31 28 31 2B 29 29 0D 0A 41 63 74 75 61 6C 3A 20 00 .CSTR   "0 2(1(1+))","\r\nActual: "   
51A4   CD 2A 04               CALL   printdec   
51A7   CD 05 04               CALL   printStr   
51AA   0D 0A 45 78 70 65 63 74 65 64 3A 20 00 .CSTR   "\r\nExpected: "   
51B7   21 02 00               LD   HL,2   
51BA   CD 2A 04               CALL   printdec   
51BD   76                     HALT      
51BE   00                     .CSTR      
51BF                EXPECTM_0_2096S29:      
51BF   E1                     POP   HL   
51C0                          ;*Macro unroll:  test "0 2(2(1+))", 4
51C0   CD FC 03               CALL   enter   
51C3   30 20 32 28 32 28 31 2B 29 29 00 .CSTR   "0 2(2(1+))"   
51CE                          ;*Macro unroll:  expect "0 2(2(1+))",4
51CE   E1                     POP   HL   
51CF   E5                     PUSH   HL   
51D0   11 04 00               LD   DE,4   
51D3   B7                     OR   A   
51D4   ED 52                  SBC   HL,DE   
51D6   7D                     LD   A,L   
51D7   B4                     OR   H   
51D8   28 33                  JR   Z,expectM_0_2097S29   
51DA   CD 05 04               CALL   printStr   
51DD   30 20 32 28 32 28 31 2B 29 29 0D 0A 41 63 74 75 61 6C 3A 20 00 .CSTR   "0 2(2(1+))","\r\nActual: "   
51F2   CD 2A 04               CALL   printdec   
51F5   CD 05 04               CALL   printStr   
51F8   0D 0A 45 78 70 65 63 74 65 64 3A 20 00 .CSTR   "\r\nExpected: "   
5205   21 04 00               LD   HL,4   
5208   CD 2A 04               CALL   printdec   
520B   76                     HALT      
520C   00                     .CSTR      
520D                EXPECTM_0_2097S29:      
520D   E1                     POP   HL   
520E                          ;*Macro unroll:  test "0 1(\\i@+)", 0
520E   CD FC 03               CALL   enter   
5211   30 20 31 28 5C 69 40 2B 29 00 .CSTR   "0 1(\\i@+)"   
521B                          ;*Macro unroll:  expect "0 1(\\i@+)",0
521B   E1                     POP   HL   
521C   E5                     PUSH   HL   
521D   11 00 00               LD   DE,0   
5220   B7                     OR   A   
5221   ED 52                  SBC   HL,DE   
5223   7D                     LD   A,L   
5224   B4                     OR   H   
5225   28 32                  JR   Z,expectM_0_2098S29   
5227   CD 05 04               CALL   printStr   
522A   30 20 31 28 5C 69 40 2B 29 0D 0A 41 63 74 75 61 6C 3A 20 00 .CSTR   "0 1(\\i@+)","\r\nActual: "   
523E   CD 2A 04               CALL   printdec   
5241   CD 05 04               CALL   printStr   
5244   0D 0A 45 78 70 65 63 74 65 64 3A 20 00 .CSTR   "\r\nExpected: "   
5251   21 00 00               LD   HL,0   
5254   CD 2A 04               CALL   printdec   
5257   76                     HALT      
5258   00                     .CSTR      
5259                EXPECTM_0_2098S29:      
5259   E1                     POP   HL   
525A                          ;*Macro unroll:  test "0 2(\\i@+)", 1
525A   CD FC 03               CALL   enter   
525D   30 20 32 28 5C 69 40 2B 29 00 .CSTR   "0 2(\\i@+)"   
5267                          ;*Macro unroll:  expect "0 2(\\i@+)",1
5267   E1                     POP   HL   
5268   E5                     PUSH   HL   
5269   11 01 00               LD   DE,1   
526C   B7                     OR   A   
526D   ED 52                  SBC   HL,DE   
526F   7D                     LD   A,L   
5270   B4                     OR   H   
5271   28 32                  JR   Z,expectM_0_2099S29   
5273   CD 05 04               CALL   printStr   
5276   30 20 32 28 5C 69 40 2B 29 0D 0A 41 63 74 75 61 6C 3A 20 00 .CSTR   "0 2(\\i@+)","\r\nActual: "   
528A   CD 2A 04               CALL   printdec   
528D   CD 05 04               CALL   printStr   
5290   0D 0A 45 78 70 65 63 74 65 64 3A 20 00 .CSTR   "\r\nExpected: "   
529D   21 01 00               LD   HL,1   
52A0   CD 2A 04               CALL   printdec   
52A3   76                     HALT      
52A4   00                     .CSTR      
52A5                EXPECTM_0_2099S29:      
52A5   E1                     POP   HL   
52A6                          ;*Macro unroll:  test "0 3(\\i@+)", 3
52A6   CD FC 03               CALL   enter   
52A9   30 20 33 28 5C 69 40 2B 29 00 .CSTR   "0 3(\\i@+)"   
52B3                          ;*Macro unroll:  expect "0 3(\\i@+)",3
52B3   E1                     POP   HL   
52B4   E5                     PUSH   HL   
52B5   11 03 00               LD   DE,3   
52B8   B7                     OR   A   
52B9   ED 52                  SBC   HL,DE   
52BB   7D                     LD   A,L   
52BC   B4                     OR   H   
52BD   28 32                  JR   Z,expectM_0_2100S29   
52BF   CD 05 04               CALL   printStr   
52C2   30 20 33 28 5C 69 40 2B 29 0D 0A 41 63 74 75 61 6C 3A 20 00 .CSTR   "0 3(\\i@+)","\r\nActual: "   
52D6   CD 2A 04               CALL   printdec   
52D9   CD 05 04               CALL   printStr   
52DC   0D 0A 45 78 70 65 63 74 65 64 3A 20 00 .CSTR   "\r\nExpected: "   
52E9   21 03 00               LD   HL,3   
52EC   CD 2A 04               CALL   printdec   
52EF   76                     HALT      
52F0   00                     .CSTR      
52F1                EXPECTM_0_2100S29:      
52F1   E1                     POP   HL   
52F2                          ;*Macro unroll:  test "0 2(2(\\i@ \\i6+@ ++))", 4
52F2   CD FC 03               CALL   enter   
52F5   30 20 32 28 32 28 5C 69 40 20 5C 69 36 2B 40 20 2B 2B 29 29 00 .CSTR   "0 2(2(\\i@ \\i6+@ ++))"   
530A                          ;*Macro unroll:  expect "0 2(2(\\i@ \\i6+@ ++))",4
530A   E1                     POP   HL   
530B   E5                     PUSH   HL   
530C   11 04 00               LD   DE,4   
530F   B7                     OR   A   
5310   ED 52                  SBC   HL,DE   
5312   7D                     LD   A,L   
5313   B4                     OR   H   
5314   28 3D                  JR   Z,expectM_0_2101S29   
5316   CD 05 04               CALL   printStr   
5319   30 20 32 28 32 28 5C 69 40 20 5C 69 36 2B 40 20 2B 2B 29 29 0D 0A 41 63 74 75 61 6C 3A 20 00 .CSTR   "0 2(2(\\i@ \\i6+@ ++))","\r\nActual: "   
5338   CD 2A 04               CALL   printdec   
533B   CD 05 04               CALL   printStr   
533E   0D 0A 45 78 70 65 63 74 65 64 3A 20 00 .CSTR   "\r\nExpected: "   
534B   21 04 00               LD   HL,4   
534E   CD 2A 04               CALL   printdec   
5351   76                     HALT      
5352   00                     .CSTR      
5353                EXPECTM_0_2101S29:      
5353   E1                     POP   HL   
5354                          ;*Macro unroll:  test "0t! 10(1 t@+t!) t@",10
5354   CD FC 03               CALL   enter   
5357   30 74 21 20 31 30 28 31 20 74 40 2B 74 21 29 20 74 40 00 .CSTR   "0t! 10(1 t@+t!) t@"   
536A                          ;*Macro unroll:  expect "0t! 10(1 t@+t!) t@",10
536A   E1                     POP   HL   
536B   E5                     PUSH   HL   
536C   11 0A 00               LD   DE,10   
536F   B7                     OR   A   
5370   ED 52                  SBC   HL,DE   
5372   7D                     LD   A,L   
5373   B4                     OR   H   
5374   28 3B                  JR   Z,expectM_0_2102S29   
5376   CD 05 04               CALL   printStr   
5379   30 74 21 20 31 30 28 31 20 74 40 2B 74 21 29 20 74 40 0D 0A 41 63 74 75 61 6C 3A 20 00 .CSTR   "0t! 10(1 t@+t!) t@","\r\nActual: "   
5396   CD 2A 04               CALL   printdec   
5399   CD 05 04               CALL   printStr   
539C   0D 0A 45 78 70 65 63 74 65 64 3A 20 00 .CSTR   "\r\nExpected: "   
53A9   21 0A 00               LD   HL,10   
53AC   CD 2A 04               CALL   printdec   
53AF   76                     HALT      
53B0   00                     .CSTR      
53B1                EXPECTM_0_2102S29:      
53B1   E1                     POP   HL   
53B2                          ;*Macro unroll:  test "0(100)(200)",200
53B2   CD FC 03               CALL   enter   
53B5   30 28 31 30 30 29 28 32 30 30 29 00 .CSTR   "0(100)(200)"   
53C1                          ;*Macro unroll:  expect "0(100)(200)",200
53C1   E1                     POP   HL   
53C2   E5                     PUSH   HL   
53C3   11 C8 00               LD   DE,200   
53C6   B7                     OR   A   
53C7   ED 52                  SBC   HL,DE   
53C9   7D                     LD   A,L   
53CA   B4                     OR   H   
53CB   28 34                  JR   Z,expectM_0_2103S29   
53CD   CD 05 04               CALL   printStr   
53D0   30 28 31 30 30 29 28 32 30 30 29 0D 0A 41 63 74 75 61 6C 3A 20 00 .CSTR   "0(100)(200)","\r\nActual: "   
53E6   CD 2A 04               CALL   printdec   
53E9   CD 05 04               CALL   printStr   
53EC   0D 0A 45 78 70 65 63 74 65 64 3A 20 00 .CSTR   "\r\nExpected: "   
53F9   21 C8 00               LD   HL,200   
53FC   CD 2A 04               CALL   printdec   
53FF   76                     HALT      
5400   00                     .CSTR      
5401                EXPECTM_0_2103S29:      
5401   E1                     POP   HL   
5402                          ;*Macro unroll:  test "1(100)(200)",100
5402   CD FC 03               CALL   enter   
5405   31 28 31 30 30 29 28 32 30 30 29 00 .CSTR   "1(100)(200)"   
5411                          ;*Macro unroll:  expect "1(100)(200)",100
5411   E1                     POP   HL   
5412   E5                     PUSH   HL   
5413   11 64 00               LD   DE,100   
5416   B7                     OR   A   
5417   ED 52                  SBC   HL,DE   
5419   7D                     LD   A,L   
541A   B4                     OR   H   
541B   28 34                  JR   Z,expectM_0_2104S29   
541D   CD 05 04               CALL   printStr   
5420   31 28 31 30 30 29 28 32 30 30 29 0D 0A 41 63 74 75 61 6C 3A 20 00 .CSTR   "1(100)(200)","\r\nActual: "   
5436   CD 2A 04               CALL   printdec   
5439   CD 05 04               CALL   printStr   
543C   0D 0A 45 78 70 65 63 74 65 64 3A 20 00 .CSTR   "\r\nExpected: "   
5449   21 64 00               LD   HL,100   
544C   CD 2A 04               CALL   printdec   
544F   76                     HALT      
5450   00                     .CSTR      
5451                EXPECTM_0_2104S29:      
5451   E1                     POP   HL   
5452                          ;*Macro unroll:  test "0t! 10(\\i@ 4>\\~ \\i@ 1 t@+t!) t@",5
5452   CD FC 03               CALL   enter   
5455   30 74 21 20 31 30 28 5C 69 40 20 34 3E 5C 7E 20 5C 69 40 20 31 20 74 40 2B 74 21 29 20 74 40 00 .CSTR   "0t! 10(\\i@ 4>\\~ \\i@ 1 t@+t!) t@"   
5475                          ;*Macro unroll:  expect "0t! 10(\\i@ 4>\\~ \\i@ 1 t@+t!) t@",5
5475   E1                     POP   HL   
5476   E5                     PUSH   HL   
5477   11 05 00               LD   DE,5   
547A   B7                     OR   A   
547B   ED 52                  SBC   HL,DE   
547D   7D                     LD   A,L   
547E   B4                     OR   H   
547F   28 48                  JR   Z,expectM_0_2105S29   
5481   CD 05 04               CALL   printStr   
5484   30 74 21 20 31 30 28 5C 69 40 20 34 3E 5C 7E 20 5C 69 40 20 31 20 74 40 2B 74 21 29 20 74 40 0D 0A 41 63 74 75 61 6C 3A 20 00 .CSTR   "0t! 10(\\i@ 4>\\~ \\i@ 1 t@+t!) t@","\r\nActual: "   
54AE   CD 2A 04               CALL   printdec   
54B1   CD 05 04               CALL   printStr   
54B4   0D 0A 45 78 70 65 63 74 65 64 3A 20 00 .CSTR   "\r\nExpected: "   
54C1   21 05 00               LD   HL,5   
54C4   CD 2A 04               CALL   printdec   
54C7   76                     HALT      
54C8   00                     .CSTR      
54C9                EXPECTM_0_2105S29:      
54C9   E1                     POP   HL   
54CA                          ;*Macro unroll:  test "0t! [1 2 3] $ a! ( a@ \\i@ {+ @ t@+t! ) t@", 6
54CA   CD FC 03               CALL   enter   
54CD   30 74 21 20 5B 31 20 32 20 33 5D 20 24 20 61 21 20 28 20 61 40 20 5C 69 40 20 7B 2B 20 40 20 74 40 2B 74 21 20 29 20 74 40 00 .CSTR   "0t! [1 2 3] $ a! ( a@ \\i@ {+ @ t@+t! ) t@"   
54F7                          ;*Macro unroll:  expect "0t! [1 2 3] $ a! ( a@ \\i@ {+ @ t@+t! ) t@",6
54F7   E1                     POP   HL   
54F8   E5                     PUSH   HL   
54F9   11 06 00               LD   DE,6   
54FC   B7                     OR   A   
54FD   ED 52                  SBC   HL,DE   
54FF   7D                     LD   A,L   
5500   B4                     OR   H   
5501   28 52                  JR   Z,expectM_0_2106S29   
5503   CD 05 04               CALL   printStr   
5506   30 74 21 20 5B 31 20 32 20 33 5D 20 24 20 61 21 20 28 20 61 40 20 5C 69 40 20 7B 2B 20 40 20 74 40 2B 74 21 20 29 20 74 40 0D 0A 41 63 74 75 61 6C 3A 20 00 .CSTR   "0t! [1 2 3] $ a! ( a@ \\i@ {+ @ t@+t! ) t@","\r\nActual: "   
553A   CD 2A 04               CALL   printdec   
553D   CD 05 04               CALL   printStr   
5540   0D 0A 45 78 70 65 63 74 65 64 3A 20 00 .CSTR   "\r\nExpected: "   
554D   21 06 00               LD   HL,6   
5550   CD 2A 04               CALL   printdec   
5553   76                     HALT      
5554   00                     .CSTR      
5555                EXPECTM_0_2106S29:      
5555   E1                     POP   HL   
5556                          ;*Macro unroll:  test ":X10;\\0X", 10
5556   CD FC 03               CALL   enter   
5559   3A 58 31 30 3B 5C 30 58 00 .CSTR   ":X10;\\0X"   
5562                          ;*Macro unroll:  expect ":X10;\\0X",10
5562   E1                     POP   HL   
5563   E5                     PUSH   HL   
5564   11 0A 00               LD   DE,10   
5567   B7                     OR   A   
5568   ED 52                  SBC   HL,DE   
556A   7D                     LD   A,L   
556B   B4                     OR   H   
556C   28 31                  JR   Z,expectM_0_2107S29   
556E   CD 05 04               CALL   printStr   
5571   3A 58 31 30 3B 5C 30 58 0D 0A 41 63 74 75 61 6C 3A 20 00 .CSTR   ":X10;\\0X","\r\nActual: "   
5584   CD 2A 04               CALL   printdec   
5587   CD 05 04               CALL   printStr   
558A   0D 0A 45 78 70 65 63 74 65 64 3A 20 00 .CSTR   "\r\nExpected: "   
5597   21 0A 00               LD   HL,10   
559A   CD 2A 04               CALL   printdec   
559D   76                     HALT      
559E   00                     .CSTR      
559F                EXPECTM_0_2107S29:      
559F   E1                     POP   HL   
55A0                          ;*Macro unroll:  test "2 \\1x! \\1x@", 2
55A0   CD FC 03               CALL   enter   
55A3   32 20 5C 31 78 21 20 5C 31 78 40 00 .CSTR   "2 \\1x! \\1x@"   
55AF                          ;*Macro unroll:  expect "2 \\1x! \\1x@",2
55AF   E1                     POP   HL   
55B0   E5                     PUSH   HL   
55B1   11 02 00               LD   DE,2   
55B4   B7                     OR   A   
55B5   ED 52                  SBC   HL,DE   
55B7   7D                     LD   A,L   
55B8   B4                     OR   H   
55B9   28 34                  JR   Z,expectM_0_2108S29   
55BB   CD 05 04               CALL   printStr   
55BE   32 20 5C 31 78 21 20 5C 31 78 40 0D 0A 41 63 74 75 61 6C 3A 20 00 .CSTR   "2 \\1x! \\1x@","\r\nActual: "   
55D4   CD 2A 04               CALL   printdec   
55D7   CD 05 04               CALL   printStr   
55DA   0D 0A 45 78 70 65 63 74 65 64 3A 20 00 .CSTR   "\r\nExpected: "   
55E7   21 02 00               LD   HL,2   
55EA   CD 2A 04               CALL   printdec   
55ED   76                     HALT      
55EE   00                     .CSTR      
55EF                EXPECTM_0_2108S29:      
55EF   E1                     POP   HL   
55F0                             ; 
55F0   CD FC 03               CALL   enter   
55F3   60 44 6F 6E 65 21 60 00 .CSTR   "`Done!`"   
55FB   76                     HALT      


TEC_1:              0001 DEFINED AT LINE 1 IN constants.asm
RC2014:             0000 DEFINED AT LINE 2 IN constants.asm
EXTENDED:           0000 DEFINED AT LINE 4 IN constants.asm
LOADER:             0000 DEFINED AT LINE 20 IN constants.asm
BITBANG:            0000 DEFINED AT LINE 21 IN constants.asm
ROMSTART:           0000 DEFINED AT LINE 23 IN constants.asm
                    > USED AT LINE 100 IN IOSerial.asm
                    > USED AT LINE 105 IN IOSerial.asm
                    > USED AT LINE 111 IN IOSerial.asm
                    > USED AT LINE 117 IN IOSerial.asm
                    > USED AT LINE 123 IN IOSerial.asm
                    > USED AT LINE 129 IN IOSerial.asm
                    > USED AT LINE 135 IN IOSerial.asm
                    > USED AT LINE 141 IN IOSerial.asm
                    > USED AT LINE 147 IN IOSerial.asm
                    > USED AT LINE 189 IN IOSerial.asm
                    > USED AT LINE 43 IN SCAN.asm
RAMSTART:           1800 DEFINED AT LINE 24 IN constants.asm
                    > USED AT LINE 1 IN ram.asm
ROMSIZE:            0800 DEFINED AT LINE 25 IN constants.asm
RAMSIZE:            0800 DEFINED AT LINE 26 IN constants.asm
CONTROL:            0080 DEFINED AT LINE 22 IN IOSerial.asm
                    > USED AT LINE 465 IN IOSerial.asm
                    > USED AT LINE 487 IN IOSerial.asm
STATUS:             0080 DEFINED AT LINE 23 IN IOSerial.asm
                    > USED AT LINE 298 IN IOSerial.asm
                    > USED AT LINE 311 IN IOSerial.asm
TDR:                0081 DEFINED AT LINE 24 IN IOSerial.asm
                    > USED AT LINE 303 IN IOSerial.asm
RDR:                0081 DEFINED AT LINE 25 IN IOSerial.asm
                    > USED AT LINE 315 IN IOSerial.asm
MRESET:             0003 DEFINED AT LINE 32 IN IOSerial.asm
                    > USED AT LINE 464 IN IOSerial.asm
DIV_64:             0002 DEFINED AT LINE 35 IN IOSerial.asm
                    > USED AT LINE 486 IN IOSerial.asm
F7E2:               0000 DEFINED AT LINE 39 IN IOSerial.asm
F7O2:               0004 DEFINED AT LINE 40 IN IOSerial.asm
F7E1:               0008 DEFINED AT LINE 41 IN IOSerial.asm
F7O1:               000C DEFINED AT LINE 42 IN IOSerial.asm
F8N2:               0010 DEFINED AT LINE 43 IN IOSerial.asm
                    > USED AT LINE 486 IN IOSerial.asm
F8N1:               0014 DEFINED AT LINE 44 IN IOSerial.asm
F8E1:               0018 DEFINED AT LINE 45 IN IOSerial.asm
F8O1:               001C DEFINED AT LINE 46 IN IOSerial.asm
RTSLID:             0000 DEFINED AT LINE 50 IN IOSerial.asm
                    > USED AT LINE 486 IN IOSerial.asm
RTSLIE:             0020 DEFINED AT LINE 51 IN IOSerial.asm
RTSHID:             0040 DEFINED AT LINE 52 IN IOSerial.asm
RTSLIDB:            0060 DEFINED AT LINE 53 IN IOSerial.asm
RIE:                0080 DEFINED AT LINE 57 IN IOSerial.asm
RDRF:               0000 DEFINED AT LINE 61 IN IOSerial.asm
TDRE:               0001 DEFINED AT LINE 62 IN IOSerial.asm
DCD:                0002 DEFINED AT LINE 63 IN IOSerial.asm
CTS:                0003 DEFINED AT LINE 64 IN IOSerial.asm
FE:                 0004 DEFINED AT LINE 65 IN IOSerial.asm
OVRN:               0005 DEFINED AT LINE 66 IN IOSerial.asm
PE:                 0006 DEFINED AT LINE 67 IN IOSerial.asm
IRQ:                0007 DEFINED AT LINE 68 IN IOSerial.asm
KEYBUF:             0000 DEFINED AT LINE 76 IN IOSerial.asm
SCAN:               0001 DEFINED AT LINE 77 IN IOSerial.asm
DISPLY:             0002 DEFINED AT LINE 78 IN IOSerial.asm
PORT3:              0003 DEFINED AT LINE 79 IN IOSerial.asm
PORT4:              0004 DEFINED AT LINE 80 IN IOSerial.asm
PORT5:              0005 DEFINED AT LINE 81 IN IOSerial.asm
PORT6:              0006 DEFINED AT LINE 82 IN IOSerial.asm
PORT7:              0007 DEFINED AT LINE 83 IN IOSerial.asm
ESC:                001B DEFINED AT LINE 96 IN IOSerial.asm
CR:                 000D DEFINED AT LINE 97 IN IOSerial.asm
LF:                 000A DEFINED AT LINE 98 IN IOSerial.asm
RSTVEC:             0000 DEFINED AT LINE 102 IN IOSerial.asm
SEVENSEGMENT:       0040 DEFINED AT LINE 152 IN IOSerial.asm
PWRUP:              0050 DEFINED AT LINE 174 IN IOSerial.asm
                    > USED AT LINE 470 IN IOSerial.asm
BITIME:             0053 DEFINED AT LINE 176 IN IOSerial.asm
BITIM1:             0058 DEFINED AT LINE 180 IN IOSerial.asm
                    > USED AT LINE 182 IN IOSerial.asm
INTRET:             005F DEFINED AT LINE 185 IN IOSerial.asm
                    > USED AT LINE 446 IN IOSerial.asm
TXDATA:             006B DEFINED AT LINE 293 IN IOSerial.asm
                    > USED AT LINE 458 IN IOSerial.asm
TXCHAR:             006B DEFINED AT LINE 294 IN IOSerial.asm
TXCHAR1:            006D DEFINED AT LINE 297 IN IOSerial.asm
                    > USED AT LINE 301 IN IOSerial.asm
RXDATA:             0078 DEFINED AT LINE 309 IN IOSerial.asm
                    > USED AT LINE 456 IN IOSerial.asm
RXCHAR:             0078 DEFINED AT LINE 310 IN IOSerial.asm
                    > USED AT LINE 314 IN IOSerial.asm
GETCHAR:            0081 DEFINED AT LINE 434 IN IOSerial.asm
                    > USED AT LINE 452 IN SCAN.asm
                    > USED AT LINE 843 IN SCAN.asm
PUTCHAR:            0085 DEFINED AT LINE 438 IN IOSerial.asm
                    > USED AT LINE 482 IN SCAN.asm
                    > USED AT LINE 654 IN SCAN.asm
                    > USED AT LINE 679 IN SCAN.asm
                    > USED AT LINE 803 IN SCAN.asm
                    > USED AT LINE 992 IN SCAN.asm
                    > USED AT LINE 1227 IN SCAN.asm
                    > USED AT LINE 1513 IN SCAN.asm
                    > USED AT LINE 1571 IN SCAN.asm
RESET:              008B DEFINED AT LINE 444 IN IOSerial.asm
                    > USED AT LINE 103 IN IOSerial.asm
DSIZE:              0080 DEFINED AT LINE 15 IN SCAN.asm
                    > USED AT LINE 8 IN ram.asm
RSIZE:              0080 DEFINED AT LINE 16 IN SCAN.asm
                    > USED AT LINE 5 IN ram.asm
LSIZE:              0080 DEFINED AT LINE 17 IN SCAN.asm
                    > USED AT LINE 11 IN ram.asm
TIBSIZE:            0100 DEFINED AT LINE 18 IN SCAN.asm
                    > USED AT LINE 3 IN ram.asm
TRUE:               0001 DEFINED AT LINE 19 IN SCAN.asm
                    > USED AT LINE 1200 IN SCAN.asm
FALSE:              0000 DEFINED AT LINE 20 IN SCAN.asm
                    > USED AT LINE 82 IN SCAN.asm
                    > USED AT LINE 780 IN SCAN.asm
EMPTY:              0000 DEFINED AT LINE 21 IN SCAN.asm
MINTDATASIZE:       0068 DEFINED AT LINE 23 IN SCAN.asm
                    > USED AT LINE 567 IN SCAN.asm
                    > USED AT LINE 73 IN ram.asm
MACROS:             0180 DEFINED AT LINE 49 IN SCAN.asm
BACKSP_:            0180 DEFINED AT LINE 51 IN SCAN.asm
REEDIT_:            0197 DEFINED AT LINE 61 IN SCAN.asm
EDIT_:              019F DEFINED AT LINE 64 IN SCAN.asm
LIST_:              01AB DEFINED AT LINE 67 IN SCAN.asm
PRINTSTACK_:        01C8 DEFINED AT LINE 70 IN SCAN.asm
TOGGLEBASE_:        01D0 DEFINED AT LINE 73 IN SCAN.asm
IALTVARS:           01DA DEFINED AT LINE 80 IN SCAN.asm
                    > USED AT LINE 558 IN SCAN.asm
IOPCODES:           01EA DEFINED AT LINE 90 IN SCAN.asm
                    > USED AT LINE 571 IN SCAN.asm
ETX:                0301 DEFINED AT LINE 407 IN SCAN.asm
                    > USED AT LINE 821 IN SCAN.asm
ETX1:               030A DEFINED AT LINE 412 IN SCAN.asm
                    > USED AT LINE 410 IN SCAN.asm
START:              030C DEFINED AT LINE 415 IN SCAN.asm
INTERPRET:          0321 DEFINED AT LINE 421 IN SCAN.asm
                    > USED AT LINE 413 IN SCAN.asm
INTERPRET2:         032B DEFINED AT LINE 427 IN SCAN.asm
                    > USED AT LINE 475 IN SCAN.asm
INTERPRET3:         0333 DEFINED AT LINE 434 IN SCAN.asm
                    > USED AT LINE 443 IN SCAN.asm
INTERPRET4:         0339 DEFINED AT LINE 440 IN SCAN.asm
                    > USED AT LINE 432 IN SCAN.asm
WAITCHAR:           033E DEFINED AT LINE 451 IN SCAN.asm
                    > USED AT LINE 484 IN SCAN.asm
                    > USED AT LINE 498 IN SCAN.asm
MACRO:              034D DEFINED AT LINE 460 IN SCAN.asm
MACRO1:             0364 DEFINED AT LINE 473 IN SCAN.asm
                    > USED AT LINE 468 IN SCAN.asm
WAITCHAR1:          036A DEFINED AT LINE 477 IN SCAN.asm
                    > USED AT LINE 454 IN SCAN.asm
WAITCHAR3:          0378 DEFINED AT LINE 486 IN SCAN.asm
                    > USED AT LINE 458 IN SCAN.asm
WAITCHAR4:          038E DEFINED AT LINE 502 IN SCAN.asm
                    > USED AT LINE 456 IN SCAN.asm
NEXT:               0396 DEFINED AT LINE 529 IN SCAN.asm
                    > USED AT LINE 551 IN SCAN.asm
                    > USED AT LINE 557 IN SCAN.asm
                    > USED AT LINE 786 IN SCAN.asm
                    > USED AT LINE 852 IN SCAN.asm
                    > USED AT LINE 1014 IN SCAN.asm
COMPNEXT:           039F DEFINED AT LINE 539 IN SCAN.asm
                    > USED AT LINE 782 IN SCAN.asm
COMPNEXT1:          03AD DEFINED AT LINE 549 IN SCAN.asm
                    > USED AT LINE 546 IN SCAN.asm
INIT:               03B2 DEFINED AT LINE 553 IN SCAN.asm
                    > USED AT LINE 9
                    > USED AT LINE 417 IN SCAN.asm
INITOPS:            03D8 DEFINED AT LINE 570 IN SCAN.asm
INITOPS1:           03E1 DEFINED AT LINE 575 IN SCAN.asm
                    > USED AT LINE 585 IN SCAN.asm
                    > USED AT LINE 596 IN SCAN.asm
INITOPS2:           03F1 DEFINED AT LINE 587 IN SCAN.asm
                    > USED AT LINE 580 IN SCAN.asm
INITOPS2A:          03F6 DEFINED AT LINE 592 IN SCAN.asm
                    > USED AT LINE 595 IN SCAN.asm
ENTER:              03FC DEFINED AT LINE 598 IN SCAN.asm
                    > USED AT LINE 471 IN SCAN.asm
                    > USED AT LINE 1384 IN SCAN.asm
                    > USED AT LINE 27
                    > USED AT LINE 27
                    > USED AT LINE 27
                    > USED AT LINE 27
                    > USED AT LINE 27
                    > USED AT LINE 27
                    > USED AT LINE 27
                    > USED AT LINE 27
                    > USED AT LINE 27
                    > USED AT LINE 27
                    > USED AT LINE 27
                    > USED AT LINE 27
                    > USED AT LINE 27
                    > USED AT LINE 27
                    > USED AT LINE 27
                    > USED AT LINE 27
                    > USED AT LINE 27
                    > USED AT LINE 27
                    > USED AT LINE 27
                    > USED AT LINE 27
                    > USED AT LINE 27
                    > USED AT LINE 27
                    > USED AT LINE 27
                    > USED AT LINE 27
                    > USED AT LINE 27
                    > USED AT LINE 27
                    > USED AT LINE 49
                    > USED AT LINE 27
                    > USED AT LINE 27
                    > USED AT LINE 27
                    > USED AT LINE 27
                    > USED AT LINE 27
                    > USED AT LINE 27
                    > USED AT LINE 27
                    > USED AT LINE 27
                    > USED AT LINE 27
                    > USED AT LINE 27
                    > USED AT LINE 27
                    > USED AT LINE 27
                    > USED AT LINE 27
                    > USED AT LINE 27
                    > USED AT LINE 27
                    > USED AT LINE 27
                    > USED AT LINE 27
                    > USED AT LINE 27
                    > USED AT LINE 27
                    > USED AT LINE 27
                    > USED AT LINE 27
                    > USED AT LINE 27
                    > USED AT LINE 27
                    > USED AT LINE 27
                    > USED AT LINE 27
                    > USED AT LINE 27
                    > USED AT LINE 27
                    > USED AT LINE 27
                    > USED AT LINE 27
                    > USED AT LINE 27
                    > USED AT LINE 27
                    > USED AT LINE 27
                    > USED AT LINE 27
                    > USED AT LINE 27
                    > USED AT LINE 27
                    > USED AT LINE 27
                    > USED AT LINE 27
                    > USED AT LINE 27
                    > USED AT LINE 27
                    > USED AT LINE 27
                    > USED AT LINE 27
                    > USED AT LINE 27
                    > USED AT LINE 27
                    > USED AT LINE 27
                    > USED AT LINE 27
                    > USED AT LINE 27
                    > USED AT LINE 27
                    > USED AT LINE 27
                    > USED AT LINE 101
PRINTSTR:           0405 DEFINED AT LINE 605 IN SCAN.asm
                    > USED AT LINE 418 IN SCAN.asm
                    > USED AT LINE 1508 IN SCAN.asm
                    > USED AT LINE 1574 IN SCAN.asm
                    > USED AT LINE 11
                    > USED AT LINE 15
                    > USED AT LINE 11
                    > USED AT LINE 15
                    > USED AT LINE 11
                    > USED AT LINE 15
                    > USED AT LINE 11
                    > USED AT LINE 15
                    > USED AT LINE 11
                    > USED AT LINE 15
                    > USED AT LINE 11
                    > USED AT LINE 15
                    > USED AT LINE 11
                    > USED AT LINE 15
                    > USED AT LINE 11
                    > USED AT LINE 15
                    > USED AT LINE 11
                    > USED AT LINE 15
                    > USED AT LINE 11
                    > USED AT LINE 15
                    > USED AT LINE 11
                    > USED AT LINE 15
                    > USED AT LINE 11
                    > USED AT LINE 15
                    > USED AT LINE 11
                    > USED AT LINE 15
                    > USED AT LINE 11
                    > USED AT LINE 15
                    > USED AT LINE 11
                    > USED AT LINE 15
                    > USED AT LINE 11
                    > USED AT LINE 15
                    > USED AT LINE 11
                    > USED AT LINE 15
                    > USED AT LINE 11
                    > USED AT LINE 15
                    > USED AT LINE 11
                    > USED AT LINE 15
                    > USED AT LINE 11
                    > USED AT LINE 15
                    > USED AT LINE 11
                    > USED AT LINE 15
                    > USED AT LINE 11
                    > USED AT LINE 15
                    > USED AT LINE 11
                    > USED AT LINE 15
                    > USED AT LINE 11
                    > USED AT LINE 15
                    > USED AT LINE 11
                    > USED AT LINE 15
                    > USED AT LINE 11
                    > USED AT LINE 15
                    > USED AT LINE 11
                    > USED AT LINE 15
                    > USED AT LINE 11
                    > USED AT LINE 15
                    > USED AT LINE 11
                    > USED AT LINE 15
                    > USED AT LINE 11
                    > USED AT LINE 15
                    > USED AT LINE 11
                    > USED AT LINE 15
                    > USED AT LINE 11
                    > USED AT LINE 15
                    > USED AT LINE 11
                    > USED AT LINE 15
                    > USED AT LINE 11
                    > USED AT LINE 15
                    > USED AT LINE 11
                    > USED AT LINE 15
                    > USED AT LINE 11
                    > USED AT LINE 15
                    > USED AT LINE 11
                    > USED AT LINE 15
                    > USED AT LINE 11
                    > USED AT LINE 15
                    > USED AT LINE 11
                    > USED AT LINE 15
                    > USED AT LINE 11
                    > USED AT LINE 15
                    > USED AT LINE 11
                    > USED AT LINE 15
                    > USED AT LINE 11
                    > USED AT LINE 15
                    > USED AT LINE 11
                    > USED AT LINE 15
                    > USED AT LINE 11
                    > USED AT LINE 15
                    > USED AT LINE 11
                    > USED AT LINE 15
                    > USED AT LINE 11
                    > USED AT LINE 15
                    > USED AT LINE 11
                    > USED AT LINE 15
                    > USED AT LINE 11
                    > USED AT LINE 15
                    > USED AT LINE 11
                    > USED AT LINE 15
                    > USED AT LINE 11
                    > USED AT LINE 15
                    > USED AT LINE 11
                    > USED AT LINE 15
                    > USED AT LINE 11
                    > USED AT LINE 15
                    > USED AT LINE 11
                    > USED AT LINE 15
                    > USED AT LINE 11
                    > USED AT LINE 15
                    > USED AT LINE 11
                    > USED AT LINE 15
                    > USED AT LINE 11
                    > USED AT LINE 15
                    > USED AT LINE 11
                    > USED AT LINE 15
                    > USED AT LINE 11
                    > USED AT LINE 15
                    > USED AT LINE 11
                    > USED AT LINE 15
                    > USED AT LINE 11
                    > USED AT LINE 15
                    > USED AT LINE 11
                    > USED AT LINE 15
                    > USED AT LINE 11
                    > USED AT LINE 15
                    > USED AT LINE 11
                    > USED AT LINE 15
                    > USED AT LINE 11
                    > USED AT LINE 15
                    > USED AT LINE 11
                    > USED AT LINE 15
                    > USED AT LINE 11
                    > USED AT LINE 15
                    > USED AT LINE 11
                    > USED AT LINE 15
                    > USED AT LINE 11
                    > USED AT LINE 15
                    > USED AT LINE 11
                    > USED AT LINE 15
                    > USED AT LINE 11
                    > USED AT LINE 15
                    > USED AT LINE 11
                    > USED AT LINE 15
                    > USED AT LINE 11
                    > USED AT LINE 15
                    > USED AT LINE 11
                    > USED AT LINE 15
                    > USED AT LINE 11
                    > USED AT LINE 15
                    > USED AT LINE 11
                    > USED AT LINE 15
LOOKUPREF:          040C DEFINED AT LINE 612 IN SCAN.asm
                    > USED AT LINE 1031 IN SCAN.asm
                    > USED AT LINE 1542 IN SCAN.asm
LOOKUPREF0:         040E DEFINED AT LINE 614 IN SCAN.asm
LOOKUPREF1:         0412 DEFINED AT LINE 617 IN SCAN.asm
                    > USED AT LINE 791 IN SCAN.asm
LOOKUPREF2:         0418 DEFINED AT LINE 621 IN SCAN.asm
                    > USED AT LINE 616 IN SCAN.asm
                    > USED AT LINE 954 IN SCAN.asm
LOOKUPREF3:         041C DEFINED AT LINE 624 IN SCAN.asm
                    > USED AT LINE 620 IN SCAN.asm
PRINTDEC:           042A DEFINED AT LINE 637 IN SCAN.asm
                    > USED AT LINE 800 IN SCAN.asm
                    > USED AT LINE 13
                    > USED AT LINE 18
                    > USED AT LINE 13
                    > USED AT LINE 18
                    > USED AT LINE 13
                    > USED AT LINE 18
                    > USED AT LINE 13
                    > USED AT LINE 18
                    > USED AT LINE 13
                    > USED AT LINE 18
                    > USED AT LINE 13
                    > USED AT LINE 18
                    > USED AT LINE 13
                    > USED AT LINE 18
                    > USED AT LINE 13
                    > USED AT LINE 18
                    > USED AT LINE 13
                    > USED AT LINE 18
                    > USED AT LINE 13
                    > USED AT LINE 18
                    > USED AT LINE 13
                    > USED AT LINE 18
                    > USED AT LINE 13
                    > USED AT LINE 18
                    > USED AT LINE 13
                    > USED AT LINE 18
                    > USED AT LINE 13
                    > USED AT LINE 18
                    > USED AT LINE 13
                    > USED AT LINE 18
                    > USED AT LINE 13
                    > USED AT LINE 18
                    > USED AT LINE 13
                    > USED AT LINE 18
                    > USED AT LINE 13
                    > USED AT LINE 18
                    > USED AT LINE 13
                    > USED AT LINE 18
                    > USED AT LINE 13
                    > USED AT LINE 18
                    > USED AT LINE 13
                    > USED AT LINE 18
                    > USED AT LINE 13
                    > USED AT LINE 18
                    > USED AT LINE 13
                    > USED AT LINE 18
                    > USED AT LINE 13
                    > USED AT LINE 18
                    > USED AT LINE 13
                    > USED AT LINE 18
                    > USED AT LINE 13
                    > USED AT LINE 18
                    > USED AT LINE 13
                    > USED AT LINE 18
                    > USED AT LINE 13
                    > USED AT LINE 18
                    > USED AT LINE 13
                    > USED AT LINE 18
                    > USED AT LINE 13
                    > USED AT LINE 18
                    > USED AT LINE 13
                    > USED AT LINE 18
                    > USED AT LINE 13
                    > USED AT LINE 18
                    > USED AT LINE 13
                    > USED AT LINE 18
                    > USED AT LINE 13
                    > USED AT LINE 18
                    > USED AT LINE 13
                    > USED AT LINE 18
                    > USED AT LINE 13
                    > USED AT LINE 18
                    > USED AT LINE 13
                    > USED AT LINE 18
                    > USED AT LINE 13
                    > USED AT LINE 18
                    > USED AT LINE 13
                    > USED AT LINE 18
                    > USED AT LINE 13
                    > USED AT LINE 18
                    > USED AT LINE 13
                    > USED AT LINE 18
                    > USED AT LINE 13
                    > USED AT LINE 18
                    > USED AT LINE 13
                    > USED AT LINE 18
                    > USED AT LINE 13
                    > USED AT LINE 18
                    > USED AT LINE 13
                    > USED AT LINE 18
                    > USED AT LINE 13
                    > USED AT LINE 18
                    > USED AT LINE 13
                    > USED AT LINE 18
                    > USED AT LINE 13
                    > USED AT LINE 18
                    > USED AT LINE 13
                    > USED AT LINE 18
                    > USED AT LINE 13
                    > USED AT LINE 18
                    > USED AT LINE 13
                    > USED AT LINE 18
                    > USED AT LINE 13
                    > USED AT LINE 18
                    > USED AT LINE 13
                    > USED AT LINE 18
                    > USED AT LINE 13
                    > USED AT LINE 18
                    > USED AT LINE 13
                    > USED AT LINE 18
                    > USED AT LINE 13
                    > USED AT LINE 18
                    > USED AT LINE 13
                    > USED AT LINE 18
                    > USED AT LINE 13
                    > USED AT LINE 18
                    > USED AT LINE 13
                    > USED AT LINE 18
                    > USED AT LINE 13
                    > USED AT LINE 18
                    > USED AT LINE 13
                    > USED AT LINE 18
                    > USED AT LINE 13
                    > USED AT LINE 18
                    > USED AT LINE 13
                    > USED AT LINE 18
                    > USED AT LINE 13
                    > USED AT LINE 18
                    > USED AT LINE 13
                    > USED AT LINE 18
                    > USED AT LINE 13
                    > USED AT LINE 18
                    > USED AT LINE 13
                    > USED AT LINE 18
                    > USED AT LINE 13
                    > USED AT LINE 18
                    > USED AT LINE 13
                    > USED AT LINE 18
                    > USED AT LINE 13
                    > USED AT LINE 18
                    > USED AT LINE 13
                    > USED AT LINE 18
                    > USED AT LINE 13
                    > USED AT LINE 18
                    > USED AT LINE 13
                    > USED AT LINE 18
                    > USED AT LINE 13
                    > USED AT LINE 18
                    > USED AT LINE 13
                    > USED AT LINE 18
PRINTDEC1:          0443 DEFINED AT LINE 647 IN SCAN.asm
                    > USED AT LINE 639 IN SCAN.asm
                    > USED AT LINE 641 IN SCAN.asm
                    > USED AT LINE 643 IN SCAN.asm
                    > USED AT LINE 645 IN SCAN.asm
PRINTDEC2:          0445 DEFINED AT LINE 649 IN SCAN.asm
                    > USED AT LINE 652 IN SCAN.asm
PRINTHEX:           044E DEFINED AT LINE 656 IN SCAN.asm
                    > USED AT LINE 808 IN SCAN.asm
PRINTHEX2:          0459 DEFINED AT LINE 665 IN SCAN.asm
                    > USED AT LINE 660 IN SCAN.asm
                    > USED AT LINE 662 IN SCAN.asm
PRINTHEX3:          0462 DEFINED AT LINE 673 IN SCAN.asm
                    > USED AT LINE 671 IN SCAN.asm
NESTING:            046D DEFINED AT LINE 691 IN SCAN.asm
                    > USED AT LINE 438 IN SCAN.asm
                    > USED AT LINE 483 IN SCAN.asm
                    > USED AT LINE 1121 IN SCAN.asm
NESTING1A:          0478 DEFINED AT LINE 698 IN SCAN.asm
                    > USED AT LINE 695 IN SCAN.asm
NESTING1:           047B DEFINED AT LINE 701 IN SCAN.asm
                    > USED AT LINE 693 IN SCAN.asm
NESTING2:           048A DEFINED AT LINE 710 IN SCAN.asm
                    > USED AT LINE 705 IN SCAN.asm
                    > USED AT LINE 707 IN SCAN.asm
NESTING3:           048C DEFINED AT LINE 713 IN SCAN.asm
                    > USED AT LINE 709 IN SCAN.asm
NESTING4:           0497 DEFINED AT LINE 720 IN SCAN.asm
                    > USED AT LINE 715 IN SCAN.asm
                    > USED AT LINE 717 IN SCAN.asm
PAGE4:              0500 DEFINED AT LINE 728 IN SCAN.asm
AND_:               0500 DEFINED AT LINE 730 IN SCAN.asm
AND1:               0507 DEFINED AT LINE 738 IN SCAN.asm
                    > USED AT LINE 752 IN SCAN.asm
                    > USED AT LINE 763 IN SCAN.asm
OR_:                050B DEFINED AT LINE 744 IN SCAN.asm
XOR_:               0514 DEFINED AT LINE 754 IN SCAN.asm
XOR1:               0515 DEFINED AT LINE 756 IN SCAN.asm
                    > USED AT LINE 767 IN SCAN.asm
INV_:               051D DEFINED AT LINE 765 IN SCAN.asm
ADD_:               0522 DEFINED AT LINE 769 IN SCAN.asm
AGAIN_:             0528 DEFINED AT LINE 776 IN SCAN.asm
ARRDEF_:            052B DEFINED AT LINE 778 IN SCAN.asm
ARRDEF:             052B DEFINED AT LINE 779 IN SCAN.asm
ARRDEF1:            052D DEFINED AT LINE 781 IN SCAN.asm
                    > USED AT LINE 1201 IN SCAN.asm
CALL_:              053D DEFINED AT LINE 789 IN SCAN.asm
DOT_:               0547 DEFINED AT LINE 798 IN SCAN.asm
DOT2:               054B DEFINED AT LINE 801 IN SCAN.asm
                    > USED AT LINE 809 IN SCAN.asm
HDOT_:              0552 DEFINED AT LINE 806 IN SCAN.asm
DROP_:              0558 DEFINED AT LINE 811 IN SCAN.asm
DUP_:               055B DEFINED AT LINE 815 IN SCAN.asm
                    > USED AT LINE 1327 IN SCAN.asm
ETX_:               0560 DEFINED AT LINE 820 IN SCAN.asm
EXIT_:              0563 DEFINED AT LINE 823 IN SCAN.asm
FETCH_:             056D DEFINED AT LINE 831 IN SCAN.asm
FETCH1:             056E DEFINED AT LINE 833 IN SCAN.asm
HEX_:               0574 DEFINED AT LINE 840 IN SCAN.asm
KEY_:               0577 DEFINED AT LINE 842 IN SCAN.asm
MUL_:               0580 DEFINED AT LINE 849 IN SCAN.asm
NOP_:               0583 DEFINED AT LINE 851 IN SCAN.asm
OVER_:              0586 DEFINED AT LINE 855 IN SCAN.asm
RET_:               058D DEFINED AT LINE 863 IN SCAN.asm
                    > USED AT LINE 1332 IN SCAN.asm
ROT_:               0594 DEFINED AT LINE 868 IN SCAN.asm
SHL_:               059B DEFINED AT LINE 877 IN SCAN.asm
SHR_:               05A0 DEFINED AT LINE 884 IN SCAN.asm
SHR1:               05A1 DEFINED AT LINE 886 IN SCAN.asm
                    > USED AT LINE 1245 IN SCAN.asm
STORE_:             05A8 DEFINED AT LINE 892 IN SCAN.asm
SWAP_:              05AF DEFINED AT LINE 901 IN SCAN.asm
SUB_:               05B4 DEFINED AT LINE 907 IN SCAN.asm
SUB2:               05B6 DEFINED AT LINE 911 IN SCAN.asm
                    > USED AT LINE 920 IN SCAN.asm
NEG_:               05BC DEFINED AT LINE 917 IN SCAN.asm
EQ_:                05C2 DEFINED AT LINE 922 IN SCAN.asm
GT_:                05CE DEFINED AT LINE 931 IN SCAN.asm
LT_:                05D2 DEFINED AT LINE 936 IN SCAN.asm
CMP_:               05D4 DEFINED AT LINE 940 IN SCAN.asm
                    > USED AT LINE 934 IN SCAN.asm
EQUAL:              05DF DEFINED AT LINE 946 IN SCAN.asm
                    > USED AT LINE 927 IN SCAN.asm
LESS:               05E0 DEFINED AT LINE 948 IN SCAN.asm
                    > USED AT LINE 929 IN SCAN.asm
                    > USED AT LINE 943 IN SCAN.asm
                    > USED AT LINE 945 IN SCAN.asm
VAR_:               05E3 DEFINED AT LINE 952 IN SCAN.asm
NUM_:               05EA DEFINED AT LINE 958 IN SCAN.asm
STR_:               05ED DEFINED AT LINE 959 IN SCAN.asm
ARREND_:            05EF DEFINED AT LINE 960 IN SCAN.asm
DEF_:               05F1 DEFINED AT LINE 961 IN SCAN.asm
DIV_:               05F3 DEFINED AT LINE 962 IN SCAN.asm
BEGIN_:             05F5 DEFINED AT LINE 963 IN SCAN.asm
ALT_:               05F7 DEFINED AT LINE 965 IN SCAN.asm
ALT:                05F7 DEFINED AT LINE 971 IN SCAN.asm
ALT2:               05FE DEFINED AT LINE 977 IN SCAN.asm
STR:                0604 DEFINED AT LINE 984 IN SCAN.asm
                    > USED AT LINE 959 IN SCAN.asm
STR1:               0605 DEFINED AT LINE 987 IN SCAN.asm
                    > USED AT LINE 993 IN SCAN.asm
STR2:               0610 DEFINED AT LINE 995 IN SCAN.asm
                    > USED AT LINE 991 IN SCAN.asm
ARREND:             0613 DEFINED AT LINE 1000 IN SCAN.asm
                    > USED AT LINE 960 IN SCAN.asm
ARREND2:            0628 DEFINED AT LINE 1012 IN SCAN.asm
                    > USED AT LINE 1009 IN SCAN.asm
DEF:                062F DEFINED AT LINE 1027 IN SCAN.asm
                    > USED AT LINE 961 IN SCAN.asm
DEF1:               063F DEFINED AT LINE 1037 IN SCAN.asm
                    > USED AT LINE 1044 IN SCAN.asm
                    > USED AT LINE 1186 IN SCAN.asm
DEF2:               0649 DEFINED AT LINE 1045 IN SCAN.asm
                    > USED AT LINE 1043 IN SCAN.asm
DEF3:               064A DEFINED AT LINE 1047 IN SCAN.asm
                    > USED AT LINE 1404 IN SCAN.asm
DIV:                0650 DEFINED AT LINE 1064 IN SCAN.asm
                    > USED AT LINE 962 IN SCAN.asm
DIV1:               065A DEFINED AT LINE 1074 IN SCAN.asm
                    > USED AT LINE 1087 IN SCAN.asm
DIV2:               0667 DEFINED AT LINE 1083 IN SCAN.asm
                    > USED AT LINE 1080 IN SCAN.asm
DIV3:               0668 DEFINED AT LINE 1085 IN SCAN.asm
                    > USED AT LINE 1082 IN SCAN.asm
DIV4:               066D DEFINED AT LINE 1090 IN SCAN.asm
BEGIN:              0672 DEFINED AT LINE 1098 IN SCAN.asm
                    > USED AT LINE 963 IN SCAN.asm
BEGIN1:             069E DEFINED AT LINE 1116 IN SCAN.asm
                    > USED AT LINE 1102 IN SCAN.asm
                    > USED AT LINE 1197 IN SCAN.asm
BEGIN2:             06A0 DEFINED AT LINE 1118 IN SCAN.asm
                    > USED AT LINE 1124 IN SCAN.asm
BEGIN3:             06AC DEFINED AT LINE 1126 IN SCAN.asm
                    > USED AT LINE 1162 IN SCAN.asm
BEGIN4:             06B4 DEFINED AT LINE 1133 IN SCAN.asm
                    > USED AT LINE 1131 IN SCAN.asm
AGAIN:              06B6 DEFINED AT LINE 1136 IN SCAN.asm
                    > USED AT LINE 776 IN SCAN.asm
AGAIN1:             06D5 DEFINED AT LINE 1150 IN SCAN.asm
AGAIN2:             06DD DEFINED AT LINE 1154 IN SCAN.asm
                    > USED AT LINE 1146 IN SCAN.asm
AGAIN3:             06E0 DEFINED AT LINE 1156 IN SCAN.asm
AGAIN4:             06E2 DEFINED AT LINE 1158 IN SCAN.asm
                    > USED AT LINE 1153 IN SCAN.asm
PAGE6:              0700 DEFINED AT LINE 1169 IN SCAN.asm
                    > USED AT LINE 87 IN SCAN.asm
ALTVAR_:            0700 DEFINED AT LINE 1172 IN SCAN.asm
ANOP_:              0708 DEFINED AT LINE 1179 IN SCAN.asm
ANONDEF_:           070A DEFINED AT LINE 1182 IN SCAN.asm
BREAK_:             0713 DEFINED AT LINE 1188 IN SCAN.asm
BREAK1:             071A DEFINED AT LINE 1194 IN SCAN.asm
                    > USED AT LINE 1192 IN SCAN.asm
CARRDEF_:           0722 DEFINED AT LINE 1199 IN SCAN.asm
CFETCH_:            0727 DEFINED AT LINE 1203 IN SCAN.asm
COMMENT_:           072E DEFINED AT LINE 1210 IN SCAN.asm
                    > USED AT LINE 1214 IN SCAN.asm
CSTORE_:            0737 DEFINED AT LINE 1218 IN SCAN.asm
EMIT_:              073C DEFINED AT LINE 1224 IN SCAN.asm
EXEC_:              0743 DEFINED AT LINE 1230 IN SCAN.asm
EXEC1:              0748 DEFINED AT LINE 1233 IN SCAN.asm
                    > USED AT LINE 1231 IN SCAN.asm
DEPTH_:             074B DEFINED AT LINE 1238 IN SCAN.asm
EDITDEF_:           0759 DEFINED AT LINE 1247 IN SCAN.asm
PROMPT_:            075E DEFINED AT LINE 1251 IN SCAN.asm
GO_:                0763 DEFINED AT LINE 1256 IN SCAN.asm
GO1:                0764 DEFINED AT LINE 1258 IN SCAN.asm
                    > USED AT LINE 795 IN SCAN.asm
GO2:                0773 DEFINED AT LINE 1268 IN SCAN.asm
                    > USED AT LINE 1266 IN SCAN.asm
GO3:                0776 DEFINED AT LINE 1271 IN SCAN.asm
                    > USED AT LINE 1261 IN SCAN.asm
INPORT_:            0778 DEFINED AT LINE 1274 IN SCAN.asm
I_:                 0783 DEFINED AT LINE 1284 IN SCAN.asm
J_:                 0789 DEFINED AT LINE 1289 IN SCAN.asm
NEWLN_:             0793 DEFINED AT LINE 1296 IN SCAN.asm
OUTPORT_:           0798 DEFINED AT LINE 1300 IN SCAN.asm
PRNSTR_:            07A1 DEFINED AT LINE 1309 IN SCAN.asm
PRNSTR:             07A1 DEFINED AT LINE 1310 IN SCAN.asm
RPUSH_:             07A7 DEFINED AT LINE 1316 IN SCAN.asm
RPOP_:              07AD DEFINED AT LINE 1321 IN SCAN.asm
ADUP_:              07B3 DEFINED AT LINE 1326 IN SCAN.asm
ERET_:              07B6 DEFINED AT LINE 1328 IN SCAN.asm
STRDEF_:            07BE DEFINED AT LINE 1335 IN SCAN.asm
UNLOOP_:            07C0 DEFINED AT LINE 1338 IN SCAN.asm
UTILTABLE:          07D1 DEFINED AT LINE 1354 IN SCAN.asm
UTIL_:              07D9 DEFINED AT LINE 1364 IN SCAN.asm
UTIL:               07D9 DEFINED AT LINE 1365 IN SCAN.asm
PRINTSTK_:          07E3 DEFINED AT LINE 1375 IN SCAN.asm
PRINTSTK:           07E3 DEFINED AT LINE 1382 IN SCAN.asm
STRDEF:             080B DEFINED AT LINE 1388 IN SCAN.asm
                    > USED AT LINE 1336 IN SCAN.asm
STRDEF1:            0813 DEFINED AT LINE 1393 IN SCAN.asm
                    > USED AT LINE 1400 IN SCAN.asm
STRDEF2:            0816 DEFINED AT LINE 1397 IN SCAN.asm
                    > USED AT LINE 1392 IN SCAN.asm
MUL:                0821 DEFINED AT LINE 1412 IN SCAN.asm
                    > USED AT LINE 849 IN SCAN.asm
MUL2:               082B DEFINED AT LINE 1421 IN SCAN.asm
                    > USED AT LINE 1430 IN SCAN.asm
NUM:                083D DEFINED AT LINE 1447 IN SCAN.asm
                    > USED AT LINE 958 IN SCAN.asm
NUM1:               0841 DEFINED AT LINE 1451 IN SCAN.asm
                    > USED AT LINE 1475 IN SCAN.asm
NUM2:               085B DEFINED AT LINE 1477 IN SCAN.asm
                    > USED AT LINE 1463 IN SCAN.asm
                    > USED AT LINE 1465 IN SCAN.asm
                    > USED AT LINE 1492 IN SCAN.asm
                    > USED AT LINE 1494 IN SCAN.asm
HEX:                085F DEFINED AT LINE 1482 IN SCAN.asm
                    > USED AT LINE 840 IN SCAN.asm
HEX1:               0862 DEFINED AT LINE 1484 IN SCAN.asm
                    > USED AT LINE 1501 IN SCAN.asm
HEX2:               086A DEFINED AT LINE 1490 IN SCAN.asm
                    > USED AT LINE 1488 IN SCAN.asm
PROMPT:             087C DEFINED AT LINE 1507 IN SCAN.asm
                    > USED AT LINE 422 IN SCAN.asm
                    > USED AT LINE 1252 IN SCAN.asm
PUTSTR0:            0885 DEFINED AT LINE 1512 IN SCAN.asm
                    > USED AT LINE 1518 IN SCAN.asm
PUTSTR:             0889 DEFINED AT LINE 1515 IN SCAN.asm
                    > USED AT LINE 607 IN SCAN.asm
                    > USED AT LINE 1312 IN SCAN.asm
RPUSH:              088E DEFINED AT LINE 1521 IN SCAN.asm
                    > USED AT LINE 600 IN SCAN.asm
                    > USED AT LINE 785 IN SCAN.asm
                    > USED AT LINE 1267 IN SCAN.asm
                    > USED AT LINE 1318 IN SCAN.asm
RPOP:               0899 DEFINED AT LINE 1528 IN SCAN.asm
                    > USED AT LINE 826 IN SCAN.asm
                    > USED AT LINE 864 IN SCAN.asm
                    > USED AT LINE 1001 IN SCAN.asm
                    > USED AT LINE 1322 IN SCAN.asm
RPOP2:              08A3 DEFINED AT LINE 1533 IN SCAN.asm
EDITDEF:            08A4 DEFINED AT LINE 1536 IN SCAN.asm
                    > USED AT LINE 1248 IN SCAN.asm
EDITDEF1:           08C1 DEFINED AT LINE 1555 IN SCAN.asm
                    > USED AT LINE 1561 IN SCAN.asm
EDITDEF2:           08C2 DEFINED AT LINE 1557 IN SCAN.asm
                    > USED AT LINE 1554 IN SCAN.asm
EDITDEF3:           08CA DEFINED AT LINE 1562 IN SCAN.asm
                    > USED AT LINE 1549 IN SCAN.asm
WRITECHAR:          08D4 DEFINED AT LINE 1568 IN SCAN.asm
                    > USED AT LINE 1551 IN SCAN.asm
                    > USED AT LINE 1553 IN SCAN.asm
                    > USED AT LINE 1559 IN SCAN.asm
CRLF:               08D9 DEFINED AT LINE 1573 IN SCAN.asm
                    > USED AT LINE 495 IN SCAN.asm
                    > USED AT LINE 1297 IN SCAN.asm
TIB:                1800 DEFINED AT LINE 3 IN ram.asm
                    > USED AT LINE 431 IN SCAN.asm
                    > USED AT LINE 478 IN SCAN.asm
                    > USED AT LINE 487 IN SCAN.asm
                    > USED AT LINE 504 IN SCAN.asm
                    > USED AT LINE 1548 IN SCAN.asm
                    > USED AT LINE 1563 IN SCAN.asm
RSTACK:             1980 DEFINED AT LINE 6 IN ram.asm
                    > USED AT LINE 556 IN SCAN.asm
DSTACK:             1A00 DEFINED AT LINE 9 IN ram.asm
                    > USED AT LINE 8
                    > USED AT LINE 81 IN SCAN.asm
                    > USED AT LINE 408 IN SCAN.asm
                    > USED AT LINE 411 IN SCAN.asm
                    > USED AT LINE 416 IN SCAN.asm
                    > USED AT LINE 1242 IN SCAN.asm
STACK:              1A00 DEFINED AT LINE 10 IN ram.asm
                    > USED AT LINE 445 IN IOSerial.asm
LSTACK:             1A80 DEFINED AT LINE 12 IN ram.asm
                    > USED AT LINE 554 IN SCAN.asm
OPCODES:            1B00 DEFINED AT LINE 14 IN ram.asm
                    > USED AT LINE 572 IN SCAN.asm
CTRLCODES:          1B80 DEFINED AT LINE 16 IN ram.asm
                    > USED AT LINE 462 IN SCAN.asm
ALTCODES:           1B80 DEFINED AT LINE 17 IN ram.asm
                    > USED AT LINE 974 IN SCAN.asm
MINTVARS:           1C00 DEFINED AT LINE 21 IN ram.asm
                    > USED AT LINE 1174 IN SCAN.asm
VLOOPSP:            1C30 DEFINED AT LINE 23 IN ram.asm
                    > USED AT LINE 555 IN SCAN.asm
                    > USED AT LINE 1104 IN SCAN.asm
                    > USED AT LINE 1113 IN SCAN.asm
                    > USED AT LINE 1138 IN SCAN.asm
                    > USED AT LINE 1159 IN SCAN.asm
                    > USED AT LINE 1285 IN SCAN.asm
                    > USED AT LINE 1290 IN SCAN.asm
                    > USED AT LINE 1345 IN SCAN.asm
                    > USED AT LINE 1347 IN SCAN.asm
VBYTEMODE:          1C32 DEFINED AT LINE 24 IN ram.asm
                    > USED AT LINE 543 IN SCAN.asm
                    > USED AT LINE 783 IN SCAN.asm
                    > USED AT LINE 1007 IN SCAN.asm
TBPTR:              1C34 DEFINED AT LINE 25 IN ram.asm
RST08:              1C36 DEFINED AT LINE 27 IN ram.asm
                    > USED AT LINE 107 IN IOSerial.asm
                    > USED AT LINE 447 IN IOSerial.asm
RST10:              1C38 DEFINED AT LINE 28 IN ram.asm
                    > USED AT LINE 113 IN IOSerial.asm
                    > USED AT LINE 448 IN IOSerial.asm
RST18:              1C3A DEFINED AT LINE 29 IN ram.asm
                    > USED AT LINE 119 IN IOSerial.asm
                    > USED AT LINE 449 IN IOSerial.asm
RST20:              1C3C DEFINED AT LINE 30 IN ram.asm
                    > USED AT LINE 125 IN IOSerial.asm
                    > USED AT LINE 450 IN IOSerial.asm
RST28:              1C3E DEFINED AT LINE 31 IN ram.asm
                    > USED AT LINE 131 IN IOSerial.asm
                    > USED AT LINE 451 IN IOSerial.asm
RST30:              1C40 DEFINED AT LINE 32 IN ram.asm
                    > USED AT LINE 137 IN IOSerial.asm
                    > USED AT LINE 452 IN IOSerial.asm
BAUD:               1C42 DEFINED AT LINE 33 IN ram.asm
INTVEC:             1C44 DEFINED AT LINE 34 IN ram.asm
                    > USED AT LINE 143 IN IOSerial.asm
                    > USED AT LINE 453 IN IOSerial.asm
NMIVEC:             1C46 DEFINED AT LINE 35 IN ram.asm
                    > USED AT LINE 191 IN IOSerial.asm
                    > USED AT LINE 454 IN IOSerial.asm
GETCVEC:            1C48 DEFINED AT LINE 36 IN ram.asm
                    > USED AT LINE 435 IN IOSerial.asm
                    > USED AT LINE 457 IN IOSerial.asm
PUTCVEC:            1C4A DEFINED AT LINE 37 IN ram.asm
                    > USED AT LINE 440 IN IOSerial.asm
                    > USED AT LINE 459 IN IOSerial.asm
ALTVARS:            1C80 DEFINED AT LINE 40 IN ram.asm
                    > USED AT LINE 559 IN SCAN.asm
                    > USED AT LINE 1174 IN SCAN.asm
VS0:                1C80 DEFINED AT LINE 42 IN ram.asm
VBASE16:            1C82 DEFINED AT LINE 43 IN ram.asm
VTIBPTR:            1C84 DEFINED AT LINE 44 IN ram.asm
                    > USED AT LINE 425 IN SCAN.asm
                    > USED AT LINE 461 IN SCAN.asm
                    > USED AT LINE 474 IN SCAN.asm
                    > USED AT LINE 503 IN SCAN.asm
                    > USED AT LINE 1566 IN SCAN.asm
VNS:                1C86 DEFINED AT LINE 45 IN ram.asm
VLASTDEF:           1C88 DEFINED AT LINE 46 IN ram.asm
                    > USED AT LINE 1030 IN SCAN.asm
VALTPAGE:           1C8C DEFINED AT LINE 48 IN ram.asm
                    > USED AT LINE 979 IN SCAN.asm
VHEAPPTR:           1C8E DEFINED AT LINE 49 IN ram.asm
                    > USED AT LINE 541 IN SCAN.asm
                    > USED AT LINE 550 IN SCAN.asm
                    > USED AT LINE 784 IN SCAN.asm
                    > USED AT LINE 1004 IN SCAN.asm
                    > USED AT LINE 1032 IN SCAN.asm
                    > USED AT LINE 1048 IN SCAN.asm
                    > USED AT LINE 1184 IN SCAN.asm
                    > USED AT LINE 1389 IN SCAN.asm
MINTDATA:           1CC0 DEFINED AT LINE 73 IN ram.asm
                    > USED AT LINE 563 IN SCAN.asm
                    > USED AT LINE 627 IN SCAN.asm
HEAP:               1D28 DEFINED AT LINE 75 IN ram.asm
                    > USED AT LINE 88 IN SCAN.asm
TESTSSTART:         4000 DEFINED AT LINE 17
                    > USED AT LINE 10
EXPECTM_0_2032S29:  403B DEFINED AT LINE 22
                    > USED AT LINE 9
EXPECTM_0_2033S29:  4077 DEFINED AT LINE 22
                    > USED AT LINE 9
EXPECTM_0_2034S29:  40B3 DEFINED AT LINE 22
                    > USED AT LINE 9
EXPECTM_0_2035S29:  40F1 DEFINED AT LINE 22
                    > USED AT LINE 9
EXPECTM_0_2036S29:  4131 DEFINED AT LINE 22
                    > USED AT LINE 9
EXPECTM_0_2037S29:  4171 DEFINED AT LINE 22
                    > USED AT LINE 9
EXPECTM_0_2038S29:  41B3 DEFINED AT LINE 22
                    > USED AT LINE 9
EXPECTM_0_2039S29:  41F5 DEFINED AT LINE 22
                    > USED AT LINE 9
EXPECTM_0_2040S29:  4237 DEFINED AT LINE 22
                    > USED AT LINE 9
EXPECTM_0_2041S29:  4279 DEFINED AT LINE 22
                    > USED AT LINE 9
EXPECTM_0_2042S29:  42BB DEFINED AT LINE 22
                    > USED AT LINE 9
EXPECTM_0_2043S29:  42FD DEFINED AT LINE 22
                    > USED AT LINE 9
EXPECTM_0_2044S29:  433F DEFINED AT LINE 22
                    > USED AT LINE 9
EXPECTM_0_2045S29:  4389 DEFINED AT LINE 22
                    > USED AT LINE 9
EXPECTM_0_2046S29:  43D1 DEFINED AT LINE 22
                    > USED AT LINE 9
EXPECTM_0_2047S29:  4413 DEFINED AT LINE 22
                    > USED AT LINE 9
EXPECTM_0_2048S29:  4457 DEFINED AT LINE 22
                    > USED AT LINE 9
EXPECTM_0_2049S29:  4499 DEFINED AT LINE 22
                    > USED AT LINE 9
EXPECTM_0_2050S29:  44DB DEFINED AT LINE 22
                    > USED AT LINE 9
EXPECTM_0_2051S29:  451D DEFINED AT LINE 22
                    > USED AT LINE 9
EXPECTM_0_2052S29:  455B DEFINED AT LINE 22
                    > USED AT LINE 9
EXPECTM_0_2053S29:  4599 DEFINED AT LINE 22
                    > USED AT LINE 9
EXPECTM_0_2054S29:  45D7 DEFINED AT LINE 22
                    > USED AT LINE 9
EXPECTM_0_2055S29:  4623 DEFINED AT LINE 22
                    > USED AT LINE 9
EXPECTM_0_2056S29:  4665 DEFINED AT LINE 22
                    > USED AT LINE 9
EXPECTM_0_2057S29:  46AD DEFINED AT LINE 22
                    > USED AT LINE 9
EXPECTM_2060S51:    46F5 DEFINED AT LINE 22
                    > USED AT LINE 9
EXPECTM_0_2061S29:  4739 DEFINED AT LINE 22
                    > USED AT LINE 9
EXPECTM_0_2062S29:  477F DEFINED AT LINE 22
                    > USED AT LINE 9
EXPECTM_0_2063S29:  47C7 DEFINED AT LINE 22
                    > USED AT LINE 9
EXPECTM_0_2064S29:  480D DEFINED AT LINE 22
                    > USED AT LINE 9
EXPECTM_0_2065S29:  4857 DEFINED AT LINE 22
                    > USED AT LINE 9
EXPECTM_0_2066S29:  48A1 DEFINED AT LINE 22
                    > USED AT LINE 9
EXPECTM_0_2067S29:  4903 DEFINED AT LINE 22
                    > USED AT LINE 9
EXPECTM_0_2068S29:  4947 DEFINED AT LINE 22
                    > USED AT LINE 9
EXPECTM_0_2069S29:  499D DEFINED AT LINE 22
                    > USED AT LINE 9
EXPECTM_0_2070S29:  49F5 DEFINED AT LINE 22
                    > USED AT LINE 9
EXPECTM_0_2071S29:  4A3B DEFINED AT LINE 22
                    > USED AT LINE 9
EXPECTM_0_2072S29:  4A83 DEFINED AT LINE 22
                    > USED AT LINE 9
EXPECTM_0_2073S29:  4AD3 DEFINED AT LINE 22
                    > USED AT LINE 9
EXPECTM_0_2074S29:  4B27 DEFINED AT LINE 22
                    > USED AT LINE 9
EXPECTM_0_2075S29:  4B6F DEFINED AT LINE 22
                    > USED AT LINE 9
EXPECTM_0_2076S29:  4BB3 DEFINED AT LINE 22
                    > USED AT LINE 9
EXPECTM_0_2077S29:  4BF9 DEFINED AT LINE 22
                    > USED AT LINE 9
EXPECTM_0_2078S29:  4C3D DEFINED AT LINE 22
                    > USED AT LINE 9
EXPECTM_0_2079S29:  4C89 DEFINED AT LINE 22
                    > USED AT LINE 9
EXPECTM_0_2080S29:  4CD9 DEFINED AT LINE 22
                    > USED AT LINE 9
EXPECTM_0_2081S29:  4D2D DEFINED AT LINE 22
                    > USED AT LINE 9
EXPECTM_0_2082S29:  4D89 DEFINED AT LINE 22
                    > USED AT LINE 9
EXPECTM_0_2083S29:  4DCF DEFINED AT LINE 22
                    > USED AT LINE 9
EXPECTM_0_2084S29:  4E17 DEFINED AT LINE 22
                    > USED AT LINE 9
EXPECTM_0_2085S29:  4E5F DEFINED AT LINE 22
                    > USED AT LINE 9
EXPECTM_0_2086S29:  4EAF DEFINED AT LINE 22
                    > USED AT LINE 9
EXPECTM_0_2087S29:  4F03 DEFINED AT LINE 22
                    > USED AT LINE 9
EXPECTM_0_2088S29:  4F61 DEFINED AT LINE 22
                    > USED AT LINE 9
EXPECTM_0_2089S29:  4FB7 DEFINED AT LINE 22
                    > USED AT LINE 9
EXPECTM_0_2090S29:  4FFD DEFINED AT LINE 22
                    > USED AT LINE 9
EXPECTM_0_2091S29:  5045 DEFINED AT LINE 22
                    > USED AT LINE 9
EXPECTM_0_2092S29:  508D DEFINED AT LINE 22
                    > USED AT LINE 9
EXPECTM_0_2093S29:  50D5 DEFINED AT LINE 22
                    > USED AT LINE 9
EXPECTM_0_2094S29:  5123 DEFINED AT LINE 22
                    > USED AT LINE 9
EXPECTM_0_2095S29:  5171 DEFINED AT LINE 22
                    > USED AT LINE 9
EXPECTM_0_2096S29:  51BF DEFINED AT LINE 22
                    > USED AT LINE 9
EXPECTM_0_2097S29:  520D DEFINED AT LINE 22
                    > USED AT LINE 9
EXPECTM_0_2098S29:  5259 DEFINED AT LINE 22
                    > USED AT LINE 9
EXPECTM_0_2099S29:  52A5 DEFINED AT LINE 22
                    > USED AT LINE 9
EXPECTM_0_2100S29:  52F1 DEFINED AT LINE 22
                    > USED AT LINE 9
EXPECTM_0_2101S29:  5353 DEFINED AT LINE 22
                    > USED AT LINE 9
EXPECTM_0_2102S29:  53B1 DEFINED AT LINE 22
                    > USED AT LINE 9
EXPECTM_0_2103S29:  5401 DEFINED AT LINE 22
                    > USED AT LINE 9
EXPECTM_0_2104S29:  5451 DEFINED AT LINE 22
                    > USED AT LINE 9
EXPECTM_0_2105S29:  54C9 DEFINED AT LINE 22
                    > USED AT LINE 9
EXPECTM_0_2106S29:  5555 DEFINED AT LINE 22
                    > USED AT LINE 9
EXPECTM_0_2107S29:  559F DEFINED AT LINE 22
                    > USED AT LINE 9
EXPECTM_0_2108S29:  55EF DEFINED AT LINE 22
                    > USED AT LINE 9
